(dp0
I1
(lp1
S'Adventure'
p2
aS'Animation'
p3
aS'Children'
p4
aS'Comedy'
p5
aS'Fantasy'
p6
asI2
(lp7
S'Adventure'
p8
aS'Children'
p9
aS'Fantasy'
p10
asI3
(lp11
S'Comedy'
p12
aS'Romance'
p13
asI4
(lp14
S'Comedy'
p15
aS'Drama'
p16
aS'Romance'
p17
asI5
(lp18
S'Comedy'
p19
asI6
(lp20
S'Action'
p21
aS'Crime'
p22
aS'Thriller'
p23
asI7
(lp24
S'Comedy'
p25
aS'Romance'
p26
asI8
(lp27
S'Adventure'
p28
aS'Children'
p29
asI9
(lp30
S'Action'
p31
aS'Adventure'
p32
aS'Thriller'
p33
asI10
(lp34
S'Comedy'
p35
aS'Drama'
p36
aS'Romance'
p37
asI11
(lp38
S'Adventure'
p39
aS'Animation'
p40
aS'Children'
p41
asI12
(lp42
S'Action'
p43
aS'Adventure'
p44
aS'Romance'
p45
asI13
(lp46
S'Crime'
p47
aS'Drama'
p48
asI14
(lp49
S'Drama'
p50
aS'Romance'
p51
asI15
(lp52
g19
asI16
(lp53
S'Comedy'
p54
aS'Crime'
p55
aS'Thriller'
p56
asI17
(lp57
S'Crime'
p58
aS'Drama'
p59
aS'Horror'
p60
aS'Mystery'
p61
aS'Thriller'
p62
asI18
(lp63
S'Drama'
p64
aS'Sci-Fi'
p65
asI19
(lp66
S'Drama'
p67
aS'Romance'
p68
asI20
(lp69
S'Drama'
p70
asI21
(lp71
S'Children'
p72
aS'Drama'
p73
asI22
(lp74
g70
asI23
(lp75
S'Mystery'
p76
aS'Sci-Fi'
p77
aS'Thriller'
p78
asI24
(lp79
S'Children'
p80
aS'Drama'
p81
asI25
(lp82
S'Crime'
p83
aS'Drama'
p84
asI26
(lp85
S'Comedy'
p86
aS'Romance'
p87
asI27
(lp88
S'Drama'
p89
aS'War'
p90
asI28
(lp91
g70
asI29
(lp92
S'Action'
p93
aS'Adventure'
p94
aS'Fantasy'
p95
asI30
(lp96
S'Comedy'
p97
aS'Drama'
p98
aS'Thriller'
p99
asI31
(lp100
S'Drama'
p101
aS'Romance'
p102
asI32
(lp103
S'Mystery'
p104
aS'Thriller'
p105
asI33
(lp106
S'Crime'
p107
aS'Mystery'
p108
aS'Thriller'
p109
asI34
(lp110
S'Comedy'
p111
aS'Drama'
p112
aS'Romance'
p113
asI35
(lp114
S'Children'
p115
aS'Comedy'
p116
asI36
(lp117
S'Comedy'
p118
aS'Drama'
p119
aS'Romance'
p120
asI37
(lp121
S'Adventure'
p122
aS'Children'
p123
aS'Fantasy'
p124
asI38
(lp125
S'Drama'
p126
aS'Thriller'
p127
asI39
(lp128
g70
asI40
(lp129
g19
asI41
(lp130
S'Action'
p131
aS'Sci-Fi'
p132
aS'Thriller'
p133
asI42
(lp134
S'Action'
p135
aS'Comedy'
p136
aS'Horror'
p137
aS'Thriller'
p138
asI43
(lp139
S'Action'
p140
aS'Sci-Fi'
p141
aS'Thriller'
p142
asI44
(lp143
S'Drama'
p144
aS'Thriller'
p145
asI45
(lp146
S'Action'
p147
aS'Adventure'
p148
aS'Drama'
p149
asI46
(lp150
S'Children'
p151
aS'Comedy'
p152
asI47
(lp153
g19
asI48
(lp154
S'Action'
p155
aS'Thriller'
p156
asI49
(lp157
S'Drama'
p158
aS'Horror'
p159
aS'Thriller'
p160
asI50
(lp161
S'Comedy'
p162
aS'Horror'
p163
aS'Romance'
p164
asI51
(lp165
S'Action'
p166
aS'Adventure'
p167
aS'Thriller'
p168
asI52
(lp169
S'Drama'
p170
aS'Thriller'
p171
asI53
(lp172
S'Adventure'
p173
aS'Comedy'
p174
aS'Crime'
p175
aS'Romance'
p176
asI54
(lp177
g19
asI55
(lp178
g19
asI56
(lp179
S'Drama'
p180
aS'Romance'
p181
asI57
(lp182
S'Comedy'
p183
aS'Drama'
p184
asI58
(lp185
S'Action'
p186
aS'Drama'
p187
aS'War'
p188
asI59
(lp189
S'Action'
p190
aS'Adventure'
p191
aS'Comedy'
p192
aS'Crime'
p193
asI60
(lp194
S'Drama'
p195
aS'Mystery'
p196
asI61
(lp197
g19
asI62
(lp198
S'Adventure'
p199
aS'Children'
p200
aS'Fantasy'
p201
asI63
(lp202
g19
asI64
(lp203
S'Drama'
p204
aS'Romance'
p205
asI65
(lp206
g19
asI66
(lp207
S'Action'
p208
aS'Comedy'
p209
aS'Crime'
p210
aS'Drama'
p211
aS'Thriller'
p212
asI67
(lp213
S'Adventure'
p214
aS'Children'
p215
asI68
(lp216
S'Adventure'
p217
aS'Drama'
p218
aS'IMAX'
p219
asI69
(lp220
S'Action'
p221
aS'Drama'
p222
aS'Romance'
p223
aS'War'
p224
asI70
(lp225
S'Action'
p226
aS'Adventure'
p227
aS'Comedy'
p228
aS'Crime'
p229
asI71
(lp230
S'Comedy'
p231
aS'War'
p232
asI72
(lp233
S'Adventure'
p234
aS'Children'
p235
asI73
(lp236
S'Crime'
p237
aS'Drama'
p238
aS'Mystery'
p239
asI74
(lp240
S'Action'
p241
aS'Adventure'
p242
aS'Mystery'
p243
aS'Sci-Fi'
p244
asI75
(lp245
S'Drama'
p246
aS'Thriller'
p247
aS'War'
p248
asI76
(lp249
S'Documentary'
p250
asI77
(lp251
S'Action'
p252
aS'Romance'
p253
aS'Western'
p254
asI78
(lp255
S'Action'
p256
aS'Crime'
p257
aS'Thriller'
p258
asI79
(lp259
S'Action'
p260
aS'Drama'
p261
aS'Romance'
p262
asI80
(lp263
S'Action'
p264
aS'Adventure'
p265
aS'Crime'
p266
aS'Thriller'
p267
asI81
(lp268
S'Comedy'
p269
aS'Drama'
p270
asI82
(lp271
S'Action'
p272
aS'Sci-Fi'
p273
aS'Thriller'
p274
asI83
(lp275
g19
asI84
(lp276
g19
asI85
(lp277
S'Horror'
p278
asI86
(lp279
S'Drama'
p280
aS'Romance'
p281
asI87
(lp282
S'Comedy'
p283
aS'Romance'
p284
asI88
(lp285
S'Action'
p286
aS'Children'
p287
asI89
(lp288
S'Action'
p289
aS'Crime'
p290
aS'Thriller'
p291
asI90
(lp292
S'Comedy'
p293
aS'Romance'
p294
asI91
(lp295
g19
asI92
(lp296
S'Comedy'
p297
aS'Fantasy'
p298
asI93
(lp299
S'Thriller'
p300
asI94
(lp301
S'Drama'
p302
aS'Romance'
p303
asI95
(lp304
g70
asI96
(lp305
S'Comedy'
p306
aS'Drama'
p307
aS'Romance'
p308
asI97
(lp309
S'Horror'
p310
aS'Sci-Fi'
p311
asI98
(lp312
S'Drama'
p313
aS'Fantasy'
p314
asI99
(lp315
S'Action'
p316
asI100
(lp317
S'Comedy'
p318
aS'Drama'
p319
asI101
(lp320
S'Drama'
p321
aS'Romance'
p322
asI102
(lp323
S'Action'
p324
aS'Adventure'
p325
aS'Sci-Fi'
p326
asI103
(lp327
g70
asI104
(lp328
S'Western'
p329
asI105
(lp330
S'Adventure'
p331
aS'Comedy'
p332
aS'Crime'
p333
aS'Mystery'
p334
asI106
(lp335
S'Drama'
p336
aS'Romance'
p337
asI107
(lp338
g19
asI108
(lp339
S'Drama'
p340
aS'Thriller'
p341
asI109
(lp342
S'Comedy'
p343
aS'Drama'
p344
asI110
(lp345
g70
asI111
(lp346
S'Drama'
p347
aS'Romance'
p348
asI112
(lp349
g19
asI113
(lp350
S'Comedy'
p351
aS'Drama'
p352
aS'Romance'
p353
asI114
(lp354
S'Drama'
p355
aS'Thriller'
p356
asI115
(lp357
S'Drama'
p358
aS'Thriller'
p359
asI116
(lp360
S'Adventure'
p361
aS'Comedy'
p362
asI117
(lp363
S'Comedy'
p364
aS'Drama'
p365
aS'Romance'
p366
asI118
(lp367
g19
asI119
(lp368
S'Comedy'
p369
aS'Drama'
p370
asI120
(lp371
S'Action'
p372
aS'Comedy'
p373
aS'Romance'
p374
asI121
(lp375
S'Comedy'
p376
aS'Romance'
p377
asI122
(lp378
S'Animation'
p379
aS'Children'
p380
aS'Comedy'
p381
aS'Romance'
p382
asI123
(lp383
g300
asI124
(lp384
S'Children'
p385
aS'Comedy'
p386
aS'Fantasy'
p387
asI125
(lp388
S'Crime'
p389
aS'Drama'
p390
asI126
(lp391
g19
asI127
(lp392
S'Children'
p393
aS'Comedy'
p394
asI128
(lp395
g316
asI129
(lp396
S'Comedy'
p397
aS'Romance'
p398
asI130
(lp399
S'Drama'
p400
aS'Horror'
p401
asI131
(lp402
g70
asI132
(lp403
S'Comedy'
p404
aS'Sci-Fi'
p405
asI133
(lp406
S'Mystery'
p407
aS'Thriller'
p408
asI134
(lp409
S'Adventure'
p410
aS'Children'
p411
aS'Comedy'
p412
aS'Fantasy'
p413
aS'Romance'
p414
asI135
(lp415
S'Action'
p416
aS'Adventure'
p417
aS'Sci-Fi'
p418
asI136
(lp419
g70
asI137
(lp420
S'Children'
p421
aS'Drama'
p422
asI138
(lp423
S'Drama'
p424
aS'Fantasy'
p425
aS'Romance'
p426
asI139
(lp427
S'Drama'
p428
aS'Romance'
p429
aS'War'
p430
aS'Western'
p431
asI140
(lp432
g19
asI141
(lp433
S'Drama'
p434
aS'Romance'
p435
asI142
(lp436
g70
asI143
(lp437
S'Drama'
p438
aS'Horror'
p439
aS'Sci-Fi'
p440
asI144
(lp441
g19
asI145
(lp442
S'Comedy'
p443
aS'Romance'
p444
asI146
(lp445
g70
asI147
(lp446
g70
asI148
(lp447
S'Comedy'
p448
aS'Drama'
p449
aS'Romance'
p450
asI149
(lp451
g70
asI150
(lp452
S'Action'
p453
aS'Crime'
p454
aS'Thriller'
p455
asI151
(lp456
S'Comedy'
p457
aS'Romance'
p458
asI152
(lp459
S'Crime'
p460
aS'Drama'
p461
asI153
(lp462
S'Drama'
p463
aS'Thriller'
p464
asI154
(lp465
S'Action'
p466
aS'Drama'
p467
aS'Sci-Fi'
p468
aS'Thriller'
p469
asI155
(lp470
S'Action'
p471
aS'Crime'
p472
aS'Drama'
p473
aS'Thriller'
p474
asI156
(lp475
S'Comedy'
p476
aS'Crime'
p477
aS'Drama'
p478
aS'Thriller'
p479
asI157
(lp480
g70
asI158
(lp481
S'Drama'
p482
aS'Romance'
p483
asI159
(lp484
S'Action'
p485
aS'Thriller'
p486
aS'Western'
p487
asI160
(lp488
S'Comedy'
p489
aS'Drama'
p490
asI161
(lp491
g19
asI162
(lp492
g19
asI163
(lp493
g19
asI164
(lp494
S'Animation'
p495
aS'Children'
p496
asI165
(lp497
S'Children'
p498
aS'Drama'
p499
aS'Fantasy'
p500
aS'Mystery'
p501
asI166
(lp502
S'Action'
p503
aS'Drama'
p504
aS'Thriller'
p505
asI167
(lp506
S'Action'
p507
aS'Adventure'
p508
aS'Sci-Fi'
p509
asI168
(lp510
S'Comedy'
p511
aS'Drama'
p512
aS'Fantasy'
p513
asI169
(lp514
S'Crime'
p515
aS'Drama'
p516
asI170
(lp517
S'Comedy'
p518
aS'Drama'
p519
aS'Thriller'
p520
asI171
(lp521
S'Action'
p522
aS'Comedy'
p523
aS'Sci-Fi'
p524
asI172
(lp525
S'Adventure'
p526
aS'Drama'
p527
aS'Sci-Fi'
p528
asI173
(lp529
S'Action'
p530
aS'Crime'
p531
aS'Horror'
p532
asI174
(lp533
S'Horror'
p534
aS'Sci-Fi'
p535
asI175
(lp536
g19
asI176
(lp537
S'Drama'
p538
aS'War'
p539
asI177
(lp540
g70
asI178
(lp541
S'Comedy'
p542
aS'Romance'
p543
asI179
(lp544
S'Adventure'
p545
aS'Drama'
p546
aS'War'
p547
asI180
(lp548
g19
asI181
(lp549
S'Children'
p550
asI182
(lp551
g19
asI183
(lp552
S'Comedy'
p553
aS'Drama'
p554
asI184
(lp555
S'Drama'
p556
aS'Film-Noir'
p557
aS'Romance'
p558
asI185
(lp559
g19
asI186
(lp560
S'Action'
p561
aS'Crime'
p562
aS'Drama'
p563
aS'Thriller'
p564
asI187
(lp565
S'Drama'
p566
aS'Mystery'
p567
aS'Thriller'
p568
asI188
(lp569
S'Comedy'
p570
aS'Drama'
p571
aS'Romance'
p572
asI189
(lp573
S'Comedy'
p574
aS'Drama'
p575
asI190
(lp576
S'Action'
p577
aS'Crime'
p578
aS'Fantasy'
p579
aS'Thriller'
p580
asI191
(lp581
g70
asI192
(lp582
S'Children'
p583
aS'Comedy'
p584
aS'Fantasy'
p585
asI193
(lp586
S'Comedy'
p587
aS'Drama'
p588
aS'Romance'
p589
aS'War'
p590
asI194
(lp591
S'Comedy'
p592
aS'Romance'
p593
asI195
(lp594
g70
asI196
(lp595
S'Comedy'
p596
aS'Drama'
p597
aS'Romance'
p598
asI197
(lp599
S'Action'
p600
aS'Comedy'
p601
asI198
(lp602
S'Comedy'
p603
aS'Drama'
p604
aS'Romance'
p605
asI199
(lp606
S'Adventure'
p607
aS'Children'
p608
aS'Romance'
p609
asI200
(lp610
S'Adventure'
p611
aS'Animation'
p612
aS'Children'
p613
aS'Drama'
p614
aS'Musical'
p615
aS'IMAX'
p616
asI201
(lp617
S'Drama'
p618
aS'Horror'
p619
aS'Mystery'
p620
aS'Thriller'
p621
asI202
(lp622
S'Action'
p623
aS'Comedy'
p624
aS'Crime'
p625
aS'Fantasy'
p626
asI203
(lp627
S'Adventure'
p628
aS'Comedy'
p629
aS'Western'
p630
asI204
(lp631
S'Action'
p632
aS'Comedy'
p633
asI205
(lp634
S'Comedy'
p635
aS'Drama'
p636
asI206
(lp637
S'Children'
p638
aS'Comedy'
p639
asI207
(lp640
S'Action'
p641
aS'Thriller'
p642
asI208
(lp643
S'Action'
p644
aS'Romance'
p645
aS'Thriller'
p646
asI209
(lp647
S'Comedy'
p648
aS'Romance'
p649
asI210
(lp650
S'Action'
p651
aS'Adventure'
p652
aS'Comedy'
p653
aS'Romance'
p654
aS'Thriller'
p655
asI211
(lp656
S'Drama'
p657
aS'Romance'
p658
asI212
(lp659
S'Drama'
p660
aS'Horror'
p661
aS'Romance'
p662
aS'Thriller'
p663
asI213
(lp664
g329
asI214
(lp665
S'Action'
p666
aS'Fantasy'
p667
asI215
(lp668
S'Children'
p669
aS'Comedy'
p670
aS'Fantasy'
p671
asI216
(lp672
g70
asI217
(lp673
S'Comedy'
p674
aS'Thriller'
p675
asI218
(lp676
g329
asI219
(lp677
S'Comedy'
p678
aS'Romance'
p679
asI220
(lp680
g19
asI221
(lp681
S'Action'
p682
aS'Thriller'
p683
asI222
(lp684
S'Horror'
p685
aS'Sci-Fi'
p686
aS'Thriller'
p687
asI223
(lp688
S'Adventure'
p689
aS'Comedy'
p690
aS'Western'
p691
asI224
(lp692
S'Action'
p693
aS'Adventure'
p694
aS'Thriller'
p695
asI225
(lp696
S'Comedy'
p697
aS'Sci-Fi'
p698
asI226
(lp699
g19
asI227
(lp700
S'Comedy'
p701
aS'Romance'
p702
asI228
(lp703
g19
asI229
(lp704
g19
asI230
(lp705
g70
asI231
(lp706
S'Comedy'
p707
aS'Drama'
p708
asI232
(lp709
S'Drama'
p710
aS'Thriller'
p711
asI233
(lp712
S'Adventure'
p713
aS'Children'
p714
aS'Drama'
p715
asI234
(lp716
g300
asI235
(lp717
S'Drama'
p718
aS'Western'
p719
asI236
(lp720
g19
asI237
(lp721
S'Action'
p722
aS'Comedy'
p723
aS'War'
p724
asI238
(lp725
S'Comedy'
p726
aS'Romance'
p727
asI239
(lp728
S'Drama'
p729
aS'Romance'
p730
asI240
(lp731
S'Comedy'
p732
aS'Drama'
p733
asI241
(lp734
S'Action'
p735
aS'Thriller'
p736
asI242
(lp737
g70
asI243
(lp738
S'Drama'
p739
aS'Musical'
p740
asI244
(lp741
S'Action'
p742
aS'Adventure'
p743
aS'Sci-Fi'
p744
aS'Thriller'
p745
asI245
(lp746
S'Action'
p747
aS'Adventure'
p748
aS'Comedy'
p749
aS'Fantasy'
p750
asI246
(lp751
g19
asI247
(lp752
g300
asI248
(lp753
g70
asI249
(lp754
S'Comedy'
p755
aS'Mystery'
p756
asI250
(lp757
S'Action'
p758
aS'Crime'
p759
aS'Drama'
p760
asI251
(lp761
S'Action'
p762
aS'Adventure'
p763
aS'Thriller'
p764
asI252
(lp765
S'Comedy'
p766
aS'Romance'
p767
asI253
(lp768
S'Comedy'
p769
aS'Drama'
p770
asI254
(lp771
S'Action'
p772
aS'Children'
p773
aS'Romance'
p774
asI255
(lp775
g19
asI256
(lp776
g70
asI257
(lp777
S'Drama'
p778
aS'Romance'
p779
asI258
(lp780
g70
asI259
(lp781
S'Action'
p782
aS'Drama'
p783
asI260
(lp784
S'Drama'
p785
aS'Romance'
p786
asI261
(lp787
S'Comedy'
p788
aS'Drama'
p789
asI262
(lp790
g19
asI263
(lp791
g70
asI264
(lp792
S'Drama'
p793
aS'War'
p794
asI265
(lp795
g70
asI266
(lp796
S'Children'
p797
aS'Drama'
p798
asI267
(lp799
S'Comedy'
p800
aS'Crime'
p801
aS'Horror'
p802
asI268
(lp803
S'Drama'
p804
aS'Romance'
p805
asI269
(lp806
g70
asI270
(lp807
g70
asI271
(lp808
g70
asI272
(lp809
S'Comedy'
p810
aS'Drama'
p811
aS'Romance'
p812
asI273
(lp813
g300
asI274
(lp814
S'Comedy'
p815
aS'Drama'
p816
aS'Romance'
p817
asI275
(lp818
S'Comedy'
p819
aS'Romance'
p820
aS'Thriller'
p821
asI276
(lp822
S'Action'
p823
aS'Adventure'
p824
aS'Children'
p825
aS'Comedy'
p826
aS'Fantasy'
p827
aS'Sci-Fi'
p828
asI277
(lp829
S'Action'
p830
aS'Mystery'
p831
aS'Thriller'
p832
asI278
(lp833
S'Action'
p834
aS'Adventure'
p835
aS'Comedy'
p836
aS'Romance'
p837
asI279
(lp838
S'Action'
p839
aS'Drama'
p840
aS'Western'
p841
asI280
(lp842
S'Comedy'
p843
aS'Drama'
p844
asI281
(lp845
S'Children'
p846
aS'Comedy'
p847
asI282
(lp848
S'Children'
p849
aS'Comedy'
p850
asI283
(lp851
S'Comedy'
p852
aS'Drama'
p853
aS'Fantasy'
p854
aS'Romance'
p855
aS'Thriller'
p856
asI284
(lp857
S'Adventure'
p858
aS'Animation'
p859
aS'Children'
p860
aS'Comedy'
p861
aS'Musical'
p862
asI285
(lp863
S'Action'
p864
aS'Sci-Fi'
p865
asI286
(lp866
S'Adventure'
p867
aS'Drama'
p868
aS'Western'
p869
asI287
(lp870
S'Action'
p871
aS'Crime'
p872
aS'Thriller'
p873
asI288
(lp874
S'Crime'
p875
aS'Horror'
p876
aS'Thriller'
p877
asI289
(lp878
S'Animation'
p879
aS'Children'
p880
aS'Drama'
p881
aS'Fantasy'
p882
aS'Musical'
p883
asI290
(lp884
S'Animation'
p885
aS'Children'
p886
aS'Fantasy'
p887
aS'Musical'
p888
aS'Romance'
p889
aS'IMAX'
p890
asI291
(lp891
S'Animation'
p892
aS'Children'
p893
aS'Fantasy'
p894
aS'Musical'
p895
asI292
(lp896
S'Comedy'
p897
aS'Romance'
p898
asI293
(lp899
S'Adventure'
p900
aS'Western'
p901
asI294
(lp902
S'Fantasy'
p903
aS'Horror'
p904
asI295
(lp905
S'Comedy'
p906
aS'Crime'
p907
aS'Drama'
p908
aS'Thriller'
p909
asI296
(lp910
S'Adventure'
p911
aS'Children'
p912
asI297
(lp913
S'Animation'
p914
aS'Children'
p915
asI298
(lp916
S'Drama'
p917
aS'Thriller'
p918
asI299
(lp919
S'Crime'
p920
aS'Drama'
p921
aS'Mystery'
p922
aS'Thriller'
p923
asI300
(lp924
S'Adventure'
p925
aS'Animation'
p926
aS'Children'
p927
aS'Fantasy'
p928
aS'Musical'
p929
aS'Romance'
p930
asI301
(lp931
g19
asI302
(lp932
S'Drama'
p933
aS'Thriller'
p934
asI303
(lp935
S'Action'
p936
aS'Crime'
p937
aS'Drama'
p938
aS'War'
p939
asI304
(lp940
S'Action'
p941
aS'Adventure'
p942
aS'Mystery'
p943
aS'Thriller'
p944
asI305
(lp945
S'Adventure'
p946
aS'Animation'
p947
aS'Children'
p948
aS'Fantasy'
p949
aS'Musical'
p950
asI306
(lp951
g300
asI307
(lp952
g316
asI308
(lp953
S'Adventure'
p954
aS'Animation'
p955
aS'Children'
p956
aS'Comedy'
p957
aS'Fantasy'
p958
aS'Sci-Fi'
p959
asI309
(lp960
S'Action'
p961
aS'Adventure'
p962
aS'Comedy'
p963
aS'War'
p964
asI310
(lp965
S'Action'
p966
aS'Crime'
p967
aS'Drama'
p968
asI311
(lp969
S'Drama'
p970
aS'Romance'
p971
asI312
(lp972
g19
asI313
(lp973
S'Action'
p974
aS'Adventure'
p975
asI314
(lp976
S'Comedy'
p977
aS'Romance'
p978
asI315
(lp979
S'Adventure'
p980
aS'Animation'
p981
aS'Children'
p982
aS'Comedy'
p983
aS'Musical'
p984
asI316
(lp985
g19
asI317
(lp986
S'Adventure'
p987
aS'Children'
p988
asI318
(lp989
g19
asI319
(lp990
S'Adventure'
p991
aS'Animation'
p992
aS'Comedy'
p993
asI320
(lp994
S'Action'
p995
aS'Adventure'
p996
aS'Thriller'
p997
asI321
(lp998
S'Action'
p999
aS'Adventure'
p1000
aS'Romance'
p1001
aS'Thriller'
p1002
asI322
(lp1003
g19
asI323
(lp1004
S'Comedy'
p1005
aS'War'
p1006
asI324
(lp1007
g250
asI325
(lp1008
S'Comedy'
p1009
aS'Crime'
p1010
asI326
(lp1011
S'Comedy'
p1012
aS'Drama'
p1013
asI327
(lp1014
S'Horror'
p1015
aS'Mystery'
p1016
asI328
(lp1017
S'Action'
p1018
aS'Adventure'
p1019
aS'Sci-Fi'
p1020
aS'Thriller'
p1021
asI329
(lp1022
S'Animation'
p1023
aS'Children'
p1024
aS'Drama'
p1025
aS'Musical'
p1026
aS'Romance'
p1027
asI330
(lp1028
S'Comedy'
p1029
aS'Thriller'
p1030
asI331
(lp1031
g70
asI332
(lp1032
S'Comedy'
p1033
aS'Horror'
p1034
aS'Thriller'
p1035
asI333
(lp1036
S'Drama'
p1037
aS'Mystery'
p1038
aS'Western'
p1039
asI334
(lp1040
S'Children'
p1041
aS'Comedy'
p1042
asI335
(lp1043
S'Drama'
p1044
aS'Romance'
p1045
asI336
(lp1046
S'Comedy'
p1047
aS'Romance'
p1048
asI337
(lp1049
g19
asI338
(lp1050
g19
asI339
(lp1051
g70
asI340
(lp1052
S'Children'
p1053
aS'Comedy'
p1054
aS'Fantasy'
p1055
asI341
(lp1056
S'Comedy'
p1057
aS'Drama'
p1058
aS'Romance'
p1059
asI342
(lp1060
S'Action'
p1061
aS'Thriller'
p1062
asI343
(lp1063
S'Comedy'
p1064
aS'Horror'
p1065
asI344
(lp1066
g70
asI345
(lp1067
S'Action'
p1068
aS'Adventure'
p1069
aS'Sci-Fi'
p1070
aS'Thriller'
p1071
asI346
(lp1072
S'Comedy'
p1073
aS'Drama'
p1074
aS'Romance'
p1075
asI347
(lp1076
S'Crime'
p1077
aS'Drama'
p1078
asI348
(lp1079
S'Comedy'
p1080
aS'Crime'
p1081
asI349
(lp1082
S'Sci-Fi'
p1083
aS'Thriller'
p1084
asI350
(lp1085
S'Children'
p1086
aS'Comedy'
p1087
asI351
(lp1088
S'Adventure'
p1089
aS'Animation'
p1090
aS'Children'
p1091
aS'Musical'
p1092
asI352
(lp1093
S'Horror'
p1094
aS'Thriller'
p1095
asI353
(lp1096
S'Comedy'
p1097
aS'Drama'
p1098
aS'Romance'
p1099
asI354
(lp1100
S'Comedy'
p1101
aS'Drama'
p1102
aS'Romance'
p1103
asI355
(lp1104
S'Comedy'
p1105
aS'Musical'
p1106
aS'Romance'
p1107
asI356
(lp1108
S'Drama'
p1109
aS'Romance'
p1110
asI357
(lp1111
S'Mystery'
p1112
aS'Thriller'
p1113
asI358
(lp1114
S'Action'
p1115
aS'Adventure'
p1116
aS'Mystery'
p1117
aS'Romance'
p1118
aS'Thriller'
p1119
asI359
(lp1120
S'Comedy'
p1121
aS'Crime'
p1122
asI360
(lp1123
S'Drama'
p1124
aS'Romance'
p1125
asI361
(lp1126
S'Comedy'
p1127
aS'Drama'
p1128
aS'Musical'
p1129
aS'Romance'
p1130
asI362
(lp1131
S'Adventure'
p1132
aS'Children'
p1133
aS'Fantasy'
p1134
aS'Musical'
p1135
asI363
(lp1136
S'Drama'
p1137
aS'Romance'
p1138
aS'War'
p1139
asI364
(lp1140
S'Drama'
p1141
aS'Film-Noir'
p1142
aS'Romance'
p1143
asI365
(lp1144
S'Drama'
p1145
aS'Mystery'
p1146
asI366
(lp1147
S'Adventure'
p1148
aS'Drama'
p1149
aS'Sci-Fi'
p1150
asI367
(lp1151
S'Film-Noir'
p1152
aS'Romance'
p1153
aS'Thriller'
p1154
asI368
(lp1155
S'Comedy'
p1156
aS'Romance'
p1157
asI369
(lp1158
S'Action'
p1159
aS'Adventure'
p1160
aS'Romance'
p1161
asI370
(lp1162
S'Drama'
p1163
aS'Fantasy'
p1164
aS'Romance'
p1165
asI371
(lp1166
g70
asI372
(lp1167
S'Drama'
p1168
aS'War'
p1169
asI373
(lp1170
g70
asI374
(lp1171
S'Adventure'
p1172
aS'Children'
p1173
asI375
(lp1174
g70
asI376
(lp1175
S'Action'
p1176
aS'Crime'
p1177
aS'Drama'
p1178
aS'Thriller'
p1179
asI377
(lp1180
S'Crime'
p1181
aS'Film-Noir'
p1182
asI378
(lp1183
S'Action'
p1184
aS'Thriller'
p1185
asI379
(lp1186
g70
asI380
(lp1187
S'Adventure'
p1188
aS'Children'
p1189
aS'Fantasy'
p1190
asI381
(lp1191
S'Animation'
p1192
aS'Children'
p1193
aS'Musical'
p1194
asI382
(lp1195
S'Animation'
p1196
aS'Children'
p1197
aS'Musical'
p1198
asI383
(lp1199
S'Animation'
p1200
aS'Children'
p1201
aS'Fantasy'
p1202
aS'Musical'
p1203
asI384
(lp1204
S'Children'
p1205
aS'Comedy'
p1206
aS'Fantasy'
p1207
aS'Musical'
p1208
asI385
(lp1209
S'Animation'
p1210
aS'Children'
p1211
aS'Drama'
p1212
aS'Musical'
p1213
asI386
(lp1214
S'Adventure'
p1215
aS'Animation'
p1216
aS'Children'
p1217
aS'Musical'
p1218
asI387
(lp1219
S'Adventure'
p1220
aS'Children'
p1221
aS'Musical'
p1222
asI388
(lp1223
S'Adventure'
p1224
aS'Animation'
p1225
aS'Children'
p1226
aS'Fantasy'
p1227
aS'Musical'
p1228
asI389
(lp1229
S'Action'
p1230
aS'Horror'
p1231
aS'Sci-Fi'
p1232
aS'Thriller'
p1233
asI390
(lp1234
S'Comedy'
p1235
aS'Drama'
p1236
asI391
(lp1237
S'Drama'
p1238
aS'Romance'
p1239
asI392
(lp1240
S'Action'
p1241
aS'Adventure'
p1242
asI393
(lp1243
S'Comedy'
p1244
aS'Musical'
p1245
aS'Romance'
p1246
asI394
(lp1247
S'Comedy'
p1248
aS'Drama'
p1249
asI395
(lp1250
g300
asI396
(lp1251
S'Animation'
p1252
aS'Children'
p1253
aS'Comedy'
p1254
aS'Fantasy'
p1255
aS'Musical'
p1256
aS'Romance'
p1257
asI397
(lp1258
S'Children'
p1259
aS'Comedy'
p1260
aS'Fantasy'
p1261
aS'Musical'
p1262
asI398
(lp1263
S'Comedy'
p1264
aS'Sci-Fi'
p1265
asI399
(lp1266
S'Comedy'
p1267
aS'Crime'
p1268
asI400
(lp1269
g19
asI401
(lp1270
g70
asI402
(lp1271
S'Crime'
p1272
aS'Drama'
p1273
asI403
(lp1274
S'Crime'
p1275
aS'Mystery'
p1276
aS'Thriller'
p1277
asI404
(lp1278
S'Drama'
p1279
aS'Musical'
p1280
aS'Romance'
p1281
asI405
(lp1282
S'Crime'
p1283
aS'Mystery'
p1284
aS'Thriller'
p1285
asI406
(lp1286
S'Drama'
p1287
aS'War'
p1288
asI407
(lp1289
S'Crime'
p1290
aS'Mystery'
p1291
aS'Thriller'
p1292
asI408
(lp1293
g70
asI409
(lp1294
S'Drama'
p1295
aS'Romance'
p1296
aS'Thriller'
p1297
asI410
(lp1298
g70
asI411
(lp1299
S'Children'
p1300
aS'Drama'
p1301
aS'Sci-Fi'
p1302
asI412
(lp1303
S'Action'
p1304
aS'Drama'
p1305
aS'Romance'
p1306
asI413
(lp1307
S'Action'
p1308
aS'Romance'
p1309
asI414
(lp1310
g70
asI415
(lp1311
g70
asI416
(lp1312
S'Action'
p1313
aS'Adventure'
p1314
aS'Sci-Fi'
p1315
aS'Thriller'
p1316
asI417
(lp1317
S'Adventure'
p1318
aS'Comedy'
p1319
aS'Fantasy'
p1320
asI418
(lp1321
S'Comedy'
p1322
aS'Drama'
p1323
asI419
(lp1324
S'Crime'
p1325
aS'Drama'
p1326
aS'Film-Noir'
p1327
asI420
(lp1328
S'Drama'
p1329
aS'Romance'
p1330
aS'War'
p1331
asI421
(lp1332
S'Comedy'
p1333
aS'Romance'
p1334
asI422
(lp1335
S'Action'
p1336
aS'Adventure'
p1337
aS'Sci-Fi'
p1338
asI423
(lp1339
S'Action'
p1340
aS'Adventure'
p1341
aS'Comedy'
p1342
aS'Fantasy'
p1343
aS'Romance'
p1344
asI424
(lp1345
S'Action'
p1346
aS'Adventure'
p1347
asI425
(lp1348
S'Fantasy'
p1349
aS'Sci-Fi'
p1350
asI426
(lp1351
S'Action'
p1352
aS'Adventure'
p1353
aS'Horror'
p1354
aS'Sci-Fi'
p1355
asI427
(lp1356
g70
asI428
(lp1357
S'Crime'
p1358
aS'Drama'
p1359
aS'Sci-Fi'
p1360
aS'Thriller'
p1361
asI429
(lp1362
S'Action'
p1363
aS'Drama'
p1364
aS'War'
p1365
asI430
(lp1366
S'Action'
p1367
aS'Adventure'
p1368
aS'Sci-Fi'
p1369
asI431
(lp1370
S'Drama'
p1371
aS'Fantasy'
p1372
aS'Romance'
p1373
asI432
(lp1374
S'Crime'
p1375
aS'Drama'
p1376
asI433
(lp1377
S'Horror'
p1378
aS'Sci-Fi'
p1379
asI434
(lp1380
S'Crime'
p1381
aS'Horror'
p1382
asI435
(lp1383
S'Action'
p1384
aS'Comedy'
p1385
aS'Musical'
p1386
asI436
(lp1387
S'Drama'
p1388
aS'War'
p1389
asI437
(lp1390
S'Action'
p1391
aS'Drama'
p1392
aS'Romance'
p1393
aS'War'
p1394
asI438
(lp1395
g70
asI439
(lp1396
S'Drama'
p1397
aS'Romance'
p1398
asI440
(lp1399
S'Action'
p1400
aS'Sci-Fi'
p1401
aS'Thriller'
p1402
asI441
(lp1403
g70
asI442
(lp1404
S'Comedy'
p1405
aS'Drama'
p1406
aS'Romance'
p1407
asI443
(lp1408
S'Adventure'
p1409
aS'Drama'
p1410
aS'War'
p1411
asI444
(lp1412
S'Comedy'
p1413
aS'Musical'
p1414
aS'War'
p1415
asI445
(lp1416
g278
asI446
(lp1417
S'Adventure'
p1418
aS'Drama'
p1419
asI447
(lp1420
S'Drama'
p1421
aS'War'
p1422
asI448
(lp1423
S'Comedy'
p1424
aS'Fantasy'
p1425
aS'Romance'
p1426
asI449
(lp1427
S'Drama'
p1428
aS'Western'
p1429
asI450
(lp1430
S'Adventure'
p1431
aS'Comedy'
p1432
aS'Sci-Fi'
p1433
asI451
(lp1434
S'Drama'
p1435
aS'War'
p1436
asI452
(lp1437
S'Action'
p1438
aS'Adventure'
p1439
aS'Fantasy'
p1440
asI453
(lp1441
S'Comedy'
p1442
aS'Fantasy'
p1443
asI454
(lp1444
S'Comedy'
p1445
aS'Drama'
p1446
asI455
(lp1447
S'Animation'
p1448
aS'Children'
p1449
aS'Fantasy'
p1450
aS'Musical'
p1451
asI456
(lp1452
S'Drama'
p1453
aS'Western'
p1454
asI457
(lp1455
g19
asI458
(lp1456
S'Action'
p1457
aS'Adventure'
p1458
asI459
(lp1459
S'Drama'
p1460
aS'Musical'
p1461
asI460
(lp1462
S'Children'
p1463
aS'Drama'
p1464
aS'Fantasy'
p1465
asI461
(lp1466
S'Action'
p1467
aS'Western'
p1468
asI462
(lp1469
S'Comedy'
p1470
aS'Romance'
p1471
asI463
(lp1472
S'Horror'
p1473
aS'Thriller'
p1474
asI464
(lp1475
g278
asI465
(lp1476
S'Drama'
p1477
aS'Romance'
p1478
asI466
(lp1479
g70
asI467
(lp1480
S'Action'
p1481
aS'Adventure'
p1482
aS'Thriller'
p1483
asI468
(lp1484
S'Adventure'
p1485
aS'Sci-Fi'
p1486
asI469
(lp1487
S'Action'
p1488
aS'Crime'
p1489
asI470
(lp1490
S'Action'
p1491
aS'Drama'
p1492
aS'Thriller'
p1493
asI471
(lp1494
S'Action'
p1495
aS'Comedy'
p1496
aS'Sci-Fi'
p1497
asI472
(lp1498
S'Action'
p1499
aS'Comedy'
p1500
aS'Crime'
p1501
aS'Drama'
p1502
aS'Sci-Fi'
p1503
asI473
(lp1504
S'Adventure'
p1505
aS'Animation'
p1506
aS'Comedy'
p1507
aS'Crime'
p1508
asI474
(lp1509
S'Action'
p1510
aS'Romance'
p1511
aS'War'
p1512
aS'Western'
p1513
asI475
(lp1514
S'Action'
p1515
aS'Thriller'
p1516
asI476
(lp1517
S'Comedy'
p1518
aS'War'
p1519
asI477
(lp1520
g19
asI478
(lp1521
S'Crime'
p1522
aS'Drama'
p1523
asI479
(lp1524
S'Action'
p1525
aS'Comedy'
p1526
aS'Crime'
p1527
aS'Drama'
p1528
asI480
(lp1529
S'Comedy'
p1530
aS'Crime'
p1531
aS'Romance'
p1532
asI481
(lp1533
S'Action'
p1534
aS'Adventure'
p1535
aS'Comedy'
p1536
asI482
(lp1537
S'Action'
p1538
aS'Thriller'
p1539
asI483
(lp1540
S'Action'
p1541
aS'Adventure'
p1542
aS'Comedy'
p1543
aS'Sci-Fi'
p1544
asI484
(lp1545
S'Action'
p1546
aS'Adventure'
p1547
aS'Thriller'
p1548
asI485
(lp1549
S'Action'
p1550
aS'Crime'
p1551
aS'Drama'
p1552
aS'Thriller'
p1553
asI486
(lp1554
S'Action'
p1555
aS'Comedy'
p1556
aS'Sci-Fi'
p1557
asI487
(lp1558
S'Drama'
p1559
aS'Sci-Fi'
p1560
asI488
(lp1561
S'Action'
p1562
aS'Drama'
p1563
asI489
(lp1564
S'Action'
p1565
aS'Adventure'
p1566
aS'Fantasy'
p1567
asI490
(lp1568
S'Horror'
p1569
aS'Sci-Fi'
p1570
aS'Thriller'
p1571
asI491
(lp1572
S'Drama'
p1573
aS'Mystery'
p1574
aS'Romance'
p1575
aS'Thriller'
p1576
asI492
(lp1577
S'Action'
p1578
aS'Comedy'
p1579
asI493
(lp1580
S'Action'
p1581
aS'Thriller'
p1582
asI494
(lp1583
S'Action'
p1584
aS'Adventure'
p1585
aS'Thriller'
p1586
asI495
(lp1587
S'Action'
p1588
aS'Thriller'
p1589
aS'War'
p1590
asI496
(lp1591
S'Crime'
p1592
aS'Film-Noir'
p1593
aS'Mystery'
p1594
aS'Thriller'
p1595
asI497
(lp1596
S'Adventure'
p1597
aS'Drama'
p1598
aS'War'
p1599
asI498
(lp1600
S'Crime'
p1601
aS'Drama'
p1602
aS'Mystery'
p1603
aS'Thriller'
p1604
asI499
(lp1605
S'Drama'
p1606
aS'Mystery'
p1607
aS'Thriller'
p1608
asI500
(lp1609
S'Comedy'
p1610
aS'Drama'
p1611
aS'Romance'
p1612
asI501
(lp1613
S'Comedy'
p1614
aS'Drama'
p1615
asI502
(lp1616
S'Horror'
p1617
aS'Mystery'
p1618
aS'Thriller'
p1619
asI503
(lp1620
S'Drama'
p1621
aS'Sci-Fi'
p1622
aS'Thriller'
p1623
asI504
(lp1624
S'Drama'
p1625
aS'Romance'
p1626
aS'Thriller'
p1627
asI505
(lp1628
S'Action'
p1629
aS'Sci-Fi'
p1630
asI506
(lp1631
S'Comedy'
p1632
aS'Drama'
p1633
aS'Sci-Fi'
p1634
asI507
(lp1635
S'Action'
p1636
aS'Thriller'
p1637
asI508
(lp1638
S'Drama'
p1639
aS'Mystery'
p1640
asI509
(lp1641
S'Drama'
p1642
aS'Romance'
p1643
asI510
(lp1644
g70
asI511
(lp1645
S'Drama'
p1646
aS'Romance'
p1647
asI512
(lp1648
S'Comedy'
p1649
aS'Crime'
p1650
asI513
(lp1651
S'Drama'
p1652
aS'Romance'
p1653
asI514
(lp1654
S'Comedy'
p1655
aS'Drama'
p1656
asI515
(lp1657
S'Comedy'
p1658
aS'Romance'
p1659
asI516
(lp1660
S'Comedy'
p1661
aS'Drama'
p1662
aS'Romance'
p1663
asI517
(lp1664
g19
asI518
(lp1665
S'Crime'
p1666
aS'Drama'
p1667
asI519
(lp1668
S'Crime'
p1669
aS'Drama'
p1670
aS'Mystery'
p1671
aS'Thriller'
p1672
asI520
(lp1673
S'Crime'
p1674
aS'Drama'
p1675
aS'Mystery'
p1676
aS'Thriller'
p1677
asI521
(lp1678
g70
asI522
(lp1679
g70
asI523
(lp1680
S'Drama'
p1681
aS'Sci-Fi'
p1682
aS'Thriller'
p1683
asI524
(lp1684
S'Action'
p1685
aS'Sci-Fi'
p1686
aS'Thriller'
p1687
asI525
(lp1688
S'Comedy'
p1689
aS'Drama'
p1690
aS'Romance'
p1691
asI526
(lp1692
S'Comedy'
p1693
aS'Drama'
p1694
aS'Romance'
p1695
asI527
(lp1696
g300
asI528
(lp1697
S'Comedy'
p1698
aS'Drama'
p1699
aS'Romance'
p1700
asI529
(lp1701
S'Adventure'
p1702
aS'Animation'
p1703
aS'Children'
p1704
aS'Comedy'
p1705
aS'Drama'
p1706
aS'Musical'
p1707
aS'Romance'
p1708
asI530
(lp1709
S'Action'
p1710
aS'Crime'
p1711
aS'Mystery'
p1712
aS'Sci-Fi'
p1713
aS'Thriller'
p1714
asI531
(lp1715
S'Comedy'
p1716
aS'Drama'
p1717
asI532
(lp1718
S'Drama'
p1719
aS'Romance'
p1720
asI533
(lp1721
S'Action'
p1722
aS'Romance'
p1723
aS'Sci-Fi'
p1724
aS'Thriller'
p1725
asI534
(lp1726
S'Action'
p1727
aS'Comedy'
p1728
aS'Crime'
p1729
aS'Thriller'
p1730
asI535
(lp1731
S'Animation'
p1732
aS'Children'
p1733
aS'Fantasy'
p1734
aS'War'
p1735
asI536
(lp1736
S'Comedy'
p1737
aS'Romance'
p1738
asI537
(lp1739
S'Action'
p1740
aS'Drama'
p1741
aS'War'
p1742
asI538
(lp1743
S'Drama'
p1744
aS'Musical'
p1745
aS'Romance'
p1746
asI539
(lp1747
g70
asI540
(lp1748
g19
asI541
(lp1749
S'Adventure'
p1750
aS'Fantasy'
p1751
aS'Musical'
p1752
asI542
(lp1753
S'Comedy'
p1754
aS'Drama'
p1755
asI543
(lp1756
g278
asI544
(lp1757
S'Action'
p1758
aS'Comedy'
p1759
aS'Crime'
p1760
aS'Drama'
p1761
asI545
(lp1762
S'Action'
p1763
aS'Comedy'
p1764
aS'Crime'
p1765
aS'Drama'
p1766
asI546
(lp1767
S'Action'
p1768
aS'Comedy'
p1769
aS'Crime'
p1770
aS'Drama'
p1771
asI547
(lp1772
S'Action'
p1773
aS'Adventure'
p1774
aS'Children'
p1775
aS'Comedy'
p1776
aS'Fantasy'
p1777
asI548
(lp1778
S'Adventure'
p1779
aS'Comedy'
p1780
aS'Sci-Fi'
p1781
asI549
(lp1782
S'Adventure'
p1783
aS'Comedy'
p1784
aS'Sci-Fi'
p1785
aS'Western'
p1786
asI550
(lp1787
S'Animation'
p1788
aS'Children'
p1789
aS'Drama'
p1790
asI551
(lp1791
S'Action'
p1792
aS'Adventure'
p1793
aS'Drama'
p1794
asI552
(lp1795
S'Crime'
p1796
aS'Drama'
p1797
aS'Mystery'
p1798
aS'Thriller'
p1799
asI553
(lp1800
S'Comedy'
p1801
aS'Crime'
p1802
asI554
(lp1803
S'Action'
p1804
aS'Drama'
p1805
aS'War'
p1806
asI555
(lp1807
S'Adventure'
p1808
aS'Animation'
p1809
aS'Children'
p1810
aS'Fantasy'
p1811
asI556
(lp1812
S'Adventure'
p1813
aS'Children'
p1814
aS'Sci-Fi'
p1815
asI557
(lp1816
S'Action'
p1817
aS'Animation'
p1818
aS'Children'
p1819
aS'Crime'
p1820
asI558
(lp1821
S'Adventure'
p1822
aS'Children'
p1823
aS'Comedy'
p1824
aS'Fantasy'
p1825
aS'Sci-Fi'
p1826
asI559
(lp1827
S'Action'
p1828
aS'Crime'
p1829
aS'Drama'
p1830
aS'Mystery'
p1831
aS'Thriller'
p1832
asI560
(lp1833
g19
asI561
(lp1834
S'Drama'
p1835
aS'Mystery'
p1836
aS'Thriller'
p1837
asI562
(lp1838
S'Animation'
p1839
aS'Children'
p1840
aS'Comedy'
p1841
aS'Musical'
p1842
asI563
(lp1843
S'Animation'
p1844
aS'Children'
p1845
aS'Comedy'
p1846
aS'Romance'
p1847
asI564
(lp1848
S'Animation'
p1849
aS'Children'
p1850
aS'Comedy'
p1851
aS'Musical'
p1852
aS'Romance'
p1853
asI565
(lp1854
S'Adventure'
p1855
aS'Animation'
p1856
aS'Children'
p1857
asI566
(lp1858
S'Adventure'
p1859
aS'Animation'
p1860
aS'Children'
p1861
aS'Crime'
p1862
aS'Drama'
p1863
asI567
(lp1864
S'Adventure'
p1865
aS'Children'
p1866
aS'Fantasy'
p1867
asI568
(lp1868
S'Action'
p1869
aS'Adventure'
p1870
aS'Sci-Fi'
p1871
asI569
(lp1872
S'Animation'
p1873
aS'Children'
p1874
aS'Musical'
p1875
asI570
(lp1876
S'Adventure'
p1877
aS'Animation'
p1878
aS'Children'
p1879
aS'Musical'
p1880
asI571
(lp1881
S'Comedy'
p1882
aS'Fantasy'
p1883
aS'Romance'
p1884
asI572
(lp1885
S'Action'
p1886
aS'Adventure'
p1887
aS'Sci-Fi'
p1888
asI573
(lp1889
g19
asI574
(lp1890
S'Action'
p1891
aS'Adventure'
p1892
aS'Fantasy'
p1893
asI575
(lp1894
S'Adventure'
p1895
aS'Animation'
p1896
aS'Children'
p1897
aS'Fantasy'
p1898
asI576
(lp1899
S'Animation'
p1900
aS'Children'
p1901
asI577
(lp1902
S'Adventure'
p1903
aS'Animation'
p1904
aS'Children'
p1905
aS'Drama'
p1906
asI578
(lp1907
S'Adventure'
p1908
aS'Animation'
p1909
aS'Children'
p1910
aS'Comedy'
p1911
asI579
(lp1912
S'Adventure'
p1913
aS'Fantasy'
p1914
aS'Romance'
p1915
asI580
(lp1916
S'Comedy'
p1917
aS'Drama'
p1918
aS'Romance'
p1919
asI581
(lp1920
S'Adventure'
p1921
aS'Comedy'
p1922
asI582
(lp1923
S'Adventure'
p1924
aS'Children'
p1925
aS'Fantasy'
p1926
asI583
(lp1927
S'Comedy'
p1928
aS'Fantasy'
p1929
asI584
(lp1930
S'Crime'
p1931
aS'Drama'
p1932
aS'Film-Noir'
p1933
aS'Thriller'
p1934
asI585
(lp1935
S'Action'
p1936
aS'Adventure'
p1937
aS'Fantasy'
p1938
asI586
(lp1939
S'Crime'
p1940
aS'Drama'
p1941
aS'Thriller'
p1942
asI587
(lp1943
S'Mystery'
p1944
aS'Thriller'
p1945
asI588
(lp1946
S'Comedy'
p1947
aS'Fantasy'
p1948
asI589
(lp1949
S'Crime'
p1950
aS'Drama'
p1951
aS'Thriller'
p1952
asI590
(lp1953
S'Action'
p1954
aS'Comedy'
p1955
aS'Crime'
p1956
aS'Thriller'
p1957
asI591
(lp1958
S'Action'
p1959
aS'Crime'
p1960
aS'Thriller'
p1961
asI592
(lp1962
S'Comedy'
p1963
aS'Drama'
p1964
asI593
(lp1965
S'Action'
p1966
aS'Horror'
p1967
aS'Sci-Fi'
p1968
aS'Thriller'
p1969
asI594
(lp1970
S'Drama'
p1971
aS'Fantasy'
p1972
aS'Romance'
p1973
asI595
(lp1974
g19
asI596
(lp1975
S'Comedy'
p1976
aS'Drama'
p1977
aS'Romance'
p1978
aS'War'
p1979
asI597
(lp1980
S'Crime'
p1981
aS'Drama'
p1982
asI598
(lp1983
g70
asI599
(lp1984
S'Horror'
p1985
aS'Mystery'
p1986
aS'Thriller'
p1987
asI600
(lp1988
g70
asI601
(lp1989
S'Action'
p1990
aS'Thriller'
p1991
asI602
(lp1992
g19
asI603
(lp1993
S'Action'
p1994
aS'Adventure'
p1995
aS'Fantasy'
p1996
aS'Horror'
p1997
asI604
(lp1998
S'Comedy'
p1999
aS'Crime'
p2000
asI605
(lp2001
S'Crime'
p2002
aS'Horror'
p2003
aS'Thriller'
p2004
asI606
(lp2005
g19
asI607
(lp2006
S'Comedy'
p2007
aS'Drama'
p2008
asI608
(lp2009
S'Action'
p2010
aS'Adventure'
p2011
aS'Comedy'
p2012
aS'Romance'
p2013
asI609
(lp2014
S'Action'
p2015
aS'Adventure'
p2016
aS'Children'
p2017
aS'Fantasy'
p2018
aS'Mystery'
p2019
aS'Thriller'
p2020
asI610
(lp2021
S'Action'
p2022
aS'Adventure'
p2023
aS'Drama'
p2024
asI611
(lp2025
S'Comedy'
p2026
aS'Romance'
p2027
asI612
(lp2028
S'Action'
p2029
aS'Drama'
p2030
aS'War'
p2031
asI613
(lp2032
S'Adventure'
p2033
aS'Comedy'
p2034
aS'Sci-Fi'
p2035
asI614
(lp2036
g278
asI615
(lp2037
S'Crime'
p2038
aS'Drama'
p2039
aS'Mystery'
p2040
aS'Thriller'
p2041
asI616
(lp2042
S'Adventure'
p2043
aS'Comedy'
p2044
asI617
(lp2045
S'Comedy'
p2046
aS'Western'
p2047
asI618
(lp2048
S'Comedy'
p2049
aS'Romance'
p2050
asI619
(lp2051
S'Comedy'
p2052
aS'Romance'
p2053
asI620
(lp2054
S'Comedy'
p2055
aS'Crime'
p2056
asI621
(lp2057
S'Action'
p2058
aS'Adventure'
p2059
aS'Sci-Fi'
p2060
asI622
(lp2061
S'Action'
p2062
aS'Drama'
p2063
aS'Sci-Fi'
p2064
asI623
(lp2065
g70
asI624
(lp2066
S'Comedy'
p2067
aS'Crime'
p2068
aS'Thriller'
p2069
asI625
(lp2070
S'Action'
p2071
aS'Sci-Fi'
p2072
aS'Thriller'
p2073
asI626
(lp2074
S'Comedy'
p2075
aS'Romance'
p2076
asI627
(lp2077
S'Comedy'
p2078
aS'Crime'
p2079
asI628
(lp2080
S'Comedy'
p2081
aS'Romance'
p2082
asI629
(lp2083
S'Comedy'
p2084
aS'Drama'
p2085
asI630
(lp2086
S'Comedy'
p2087
aS'Drama'
p2088
asI631
(lp2089
g19
asI632
(lp2090
S'Action'
p2091
aS'Crime'
p2092
asI633
(lp2093
S'Action'
p2094
aS'Adventure'
p2095
aS'Comedy'
p2096
aS'Fantasy'
p2097
aS'Horror'
p2098
aS'Thriller'
p2099
asI634
(lp2100
S'Action'
p2101
aS'Adventure'
p2102
aS'Sci-Fi'
p2103
asI635
(lp2104
S'Action'
p2105
aS'Adventure'
p2106
aS'Sci-Fi'
p2107
asI636
(lp2108
S'Action'
p2109
aS'Sci-Fi'
p2110
asI637
(lp2111
g278
asI638
(lp2112
S'Drama'
p2113
aS'Horror'
p2114
aS'Sci-Fi'
p2115
asI639
(lp2116
S'Drama'
p2117
aS'Fantasy'
p2118
aS'Horror'
p2119
asI640
(lp2120
S'Comedy'
p2121
aS'Horror'
p2122
aS'Musical'
p2123
aS'Sci-Fi'
p2124
asI641
(lp2125
S'Comedy'
p2126
aS'Romance'
p2127
asI642
(lp2128
S'Action'
p2129
aS'Adventure'
p2130
aS'Comedy'
p2131
asI643
(lp2132
S'Crime'
p2133
aS'Drama'
p2134
aS'Mystery'
p2135
aS'Thriller'
p2136
asI644
(lp2137
S'Action'
p2138
aS'Crime'
p2139
asI645
(lp2140
g19
asI646
(lp2141
S'Animation'
p2142
aS'Comedy'
p2143
aS'Musical'
p2144
asI647
(lp2145
S'Action'
p2146
aS'Comedy'
p2147
aS'Sci-Fi'
p2148
aS'Western'
p2149
asI648
(lp2150
S'Drama'
p2151
aS'Mystery'
p2152
aS'Thriller'
p2153
asI649
(lp2154
S'Action'
p2155
aS'Comedy'
p2156
aS'Sci-Fi'
p2157
asI650
(lp2158
S'Comedy'
p2159
aS'Fantasy'
p2160
aS'Sci-Fi'
p2161
asI651
(lp2162
S'Adventure'
p2163
aS'Animation'
p2164
aS'Children'
p2165
aS'Drama'
p2166
aS'Sci-Fi'
p2167
asI652
(lp2168
S'Drama'
p2169
aS'Horror'
p2170
aS'Mystery'
p2171
asI653
(lp2172
S'Action'
p2173
aS'Mystery'
p2174
asI654
(lp2175
g19
asI655
(lp2176
g19
asI656
(lp2177
S'Comedy'
p2178
aS'Drama'
p2179
aS'Fantasy'
p2180
aS'Romance'
p2181
asI657
(lp2182
S'Action'
p2183
aS'Adventure'
p2184
aS'Fantasy'
p2185
asI658
(lp2186
S'Comedy'
p2187
aS'Romance'
p2188
asI659
(lp2189
S'Adventure'
p2190
aS'Sci-Fi'
p2191
aS'Thriller'
p2192
asI660
(lp2193
S'Drama'
p2194
aS'Romance'
p2195
asI661
(lp2196
S'Adventure'
p2197
aS'Fantasy'
p2198
asI662
(lp2199
S'Comedy'
p2200
aS'Musical'
p2201
aS'Romance'
p2202
asI663
(lp2203
S'Musical'
p2204
asI664
(lp2205
S'Adventure'
p2206
aS'Animation'
p2207
aS'Children'
p2208
asI665
(lp2209
S'Horror'
p2210
aS'Sci-Fi'
p2211
asI666
(lp2212
S'Action'
p2213
aS'Adventure'
p2214
aS'Sci-Fi'
p2215
aS'Thriller'
p2216
asI667
(lp2217
g329
asI668
(lp2218
S'Comedy'
p2219
aS'Drama'
p2220
asI669
(lp2221
S'Action'
p2222
aS'Drama'
p2223
aS'War'
p2224
asI670
(lp2225
S'Action'
p2226
aS'Adventure'
p2227
aS'Thriller'
p2228
asI671
(lp2229
S'Action'
p2230
aS'Adventure'
p2231
aS'Thriller'
p2232
asI672
(lp2233
S'Action'
p2234
aS'Adventure'
p2235
aS'Thriller'
p2236
asI673
(lp2237
S'Action'
p2238
aS'Crime'
p2239
aS'Drama'
p2240
aS'Thriller'
p2241
asI674
(lp2242
S'Comedy'
p2243
aS'Crime'
p2244
aS'Drama'
p2245
asI675
(lp2246
S'Action'
p2247
aS'Crime'
p2248
aS'Drama'
p2249
aS'Sci-Fi'
p2250
aS'Thriller'
p2251
asI676
(lp2252
S'Adventure'
p2253
aS'Animation'
p2254
aS'Children'
p2255
aS'Comedy'
p2256
aS'Crime'
p2257
aS'Fantasy'
p2258
aS'Mystery'
p2259
asI677
(lp2260
S'Action'
p2261
aS'Adventure'
p2262
aS'Thriller'
p2263
asI678
(lp2264
S'Action'
p2265
aS'Adventure'
p2266
aS'Thriller'
p2267
asI679
(lp2268
S'Comedy'
p2269
aS'Drama'
p2270
aS'Fantasy'
p2271
asI680
(lp2272
S'Horror'
p2273
aS'Sci-Fi'
p2274
asI681
(lp2275
S'Comedy'
p2276
aS'Sci-Fi'
p2277
asI682
(lp2278
S'Adventure'
p2279
aS'Animation'
p2280
aS'Children'
p2281
aS'Comedy'
p2282
aS'Musical'
p2283
asI683
(lp2284
S'Mystery'
p2285
aS'Romance'
p2286
aS'Thriller'
p2287
asI684
(lp2288
S'Adventure'
p2289
aS'Comedy'
p2290
aS'Fantasy'
p2291
asI685
(lp2292
S'Drama'
p2293
aS'War'
p2294
asI686
(lp2295
S'Comedy'
p2296
aS'Drama'
p2297
aS'Musical'
p2298
asI687
(lp2299
S'Action'
p2300
aS'Drama'
p2301
aS'War'
p2302
asI688
(lp2303
S'Comedy'
p2304
aS'Drama'
p2305
aS'Romance'
p2306
asI689
(lp2307
g70
asI690
(lp2308
S'Adventure'
p2309
aS'Animation'
p2310
aS'Children'
p2311
aS'Comedy'
p2312
aS'Fantasy'
p2313
asI691
(lp2314
S'Crime'
p2315
aS'Drama'
p2316
asI692
(lp2317
S'Drama'
p2318
aS'Romance'
p2319
aS'Sci-Fi'
p2320
asI693
(lp2321
g70
asI694
(lp2322
S'Adventure'
p2323
aS'Drama'
p2324
asI695
(lp2325
g70
asI696
(lp2326
S'Adventure'
p2327
aS'Comedy'
p2328
aS'Sci-Fi'
p2329
asI697
(lp2330
S'Drama'
p2331
aS'Mystery'
p2332
aS'Thriller'
p2333
asI698
(lp2334
S'Action'
p2335
aS'Mystery'
p2336
aS'Thriller'
p2337
asI699
(lp2338
S'Comedy'
p2339
aS'Drama'
p2340
aS'Romance'
p2341
asI700
(lp2342
g19
asI701
(lp2343
S'Comedy'
p2344
aS'Crime'
p2345
asI702
(lp2346
g19
asI703
(lp2347
S'Comedy'
p2348
aS'Drama'
p2349
asI704
(lp2350
S'Comedy'
p2351
aS'Horror'
p2352
aS'Mystery'
p2353
aS'Thriller'
p2354
asI705
(lp2355
S'Horror'
p2356
aS'Sci-Fi'
p2357
aS'Thriller'
p2358
asI706
(lp2359
S'Comedy'
p2360
aS'Drama'
p2361
asI707
(lp2362
S'Crime'
p2363
aS'Drama'
p2364
asI708
(lp2365
S'Sci-Fi'
p2366
asI709
(lp2367
S'Comedy'
p2368
aS'Drama'
p2369
aS'Fantasy'
p2370
aS'Romance'
p2371
asI710
(lp2372
S'Drama'
p2373
aS'Western'
p2374
asI711
(lp2375
S'Drama'
p2376
aS'Mystery'
p2377
aS'Thriller'
p2378
asI712
(lp2379
g70
asI713
(lp2380
S'Drama'
p2381
aS'Thriller'
p2382
asI714
(lp2383
S'Action'
p2384
aS'Children'
p2385
aS'Fantasy'
p2386
asI715
(lp2387
S'Action'
p2388
aS'Adventure'
p2389
aS'Children'
p2390
aS'Comedy'
p2391
aS'Fantasy'
p2392
asI716
(lp2393
S'Action'
p2394
aS'Drama'
p2395
aS'War'
p2396
asI717
(lp2397
S'Comedy'
p2398
aS'Drama'
p2399
aS'War'
p2400
asI718
(lp2401
g19
asI719
(lp2402
S'Adventure'
p2403
aS'Fantasy'
p2404
aS'Romance'
p2405
asI720
(lp2406
S'Comedy'
p2407
aS'Drama'
p2408
aS'Romance'
p2409
asI721
(lp2410
S'Adventure'
p2411
aS'Comedy'
p2412
aS'Fantasy'
p2413
asI722
(lp2414
S'Drama'
p2415
aS'Horror'
p2416
aS'Thriller'
p2417
asI723
(lp2418
S'Action'
p2419
aS'Adventure'
p2420
aS'Drama'
p2421
aS'Thriller'
p2422
aS'Western'
p2423
asI724
(lp2424
S'Drama'
p2425
aS'Thriller'
p2426
asI725
(lp2427
S'Drama'
p2428
aS'Thriller'
p2429
asI726
(lp2430
S'Action'
p2431
aS'Sci-Fi'
p2432
aS'Thriller'
p2433
asI727
(lp2434
S'Crime'
p2435
aS'Horror'
p2436
aS'Mystery'
p2437
aS'Thriller'
p2438
asI728
(lp2439
g19
asI729
(lp2440
S'Action'
p2441
aS'Thriller'
p2442
aS'War'
p2443
asI730
(lp2444
S'Action'
p2445
aS'Adventure'
p2446
aS'Drama'
p2447
asI731
(lp2448
S'Comedy'
p2449
aS'Drama'
p2450
asI732
(lp2451
g19
asI733
(lp2452
S'Action'
p2453
aS'Adventure'
p2454
aS'Thriller'
p2455
asI734
(lp2456
S'Action'
p2457
aS'Adventure'
p2458
aS'Comedy'
p2459
aS'Western'
p2460
asI735
(lp2461
S'Action'
p2462
aS'Adventure'
p2463
aS'Thriller'
p2464
asI736
(lp2465
S'Drama'
p2466
aS'Romance'
p2467
asI737
(lp2468
S'Comedy'
p2469
aS'Western'
p2470
asI738
(lp2471
S'Action'
p2472
aS'Adventure'
p2473
aS'Sci-Fi'
p2474
asI739
(lp2475
S'Action'
p2476
aS'Adventure'
p2477
aS'Sci-Fi'
p2478
aS'Thriller'
p2479
asI740
(lp2480
S'Action'
p2481
aS'Crime'
p2482
asI741
(lp2483
S'Action'
p2484
aS'Crime'
p2485
aS'Drama'
p2486
aS'Thriller'
p2487
asI742
(lp2488
S'Crime'
p2489
aS'Drama'
p2490
asI743
(lp2491
S'Action'
p2492
aS'Adventure'
p2493
aS'Comedy'
p2494
aS'Fantasy'
p2495
asI744
(lp2496
S'Action'
p2497
aS'Crime'
p2498
aS'Thriller'
p2499
asI745
(lp2500
S'Action'
p2501
aS'Drama'
p2502
aS'War'
p2503
asI746
(lp2504
S'Drama'
p2505
aS'Mystery'
p2506
asI747
(lp2507
S'Action'
p2508
aS'Adventure'
p2509
aS'Sci-Fi'
p2510
asI748
(lp2511
S'Drama'
p2512
aS'Horror'
p2513
aS'Mystery'
p2514
asI749
(lp2515
g19
asI750
(lp2516
S'Action'
p2517
aS'Adventure'
p2518
aS'Comedy'
p2519
aS'Sci-Fi'
p2520
asI751
(lp2521
g19
asI752
(lp2522
S'Drama'
p2523
aS'Horror'
p2524
aS'Thriller'
p2525
asI753
(lp2526
g19
asI754
(lp2527
g19
asI755
(lp2528
S'Comedy'
p2529
aS'Crime'
p2530
aS'Drama'
p2531
aS'Romance'
p2532
aS'Thriller'
p2533
asI756
(lp2534
g70
asI757
(lp2535
g19
asI758
(lp2536
g70
asI759
(lp2537
g70
asI760
(lp2538
S'Drama'
p2539
aS'Thriller'
p2540
asI761
(lp2541
g70
asI762
(lp2542
S'Action'
p2543
aS'Comedy'
p2544
asI763
(lp2545
S'Drama'
p2546
aS'Sci-Fi'
p2547
asI764
(lp2548
S'Action'
p2549
aS'Drama'
p2550
aS'Romance'
p2551
asI765
(lp2552
g19
asI766
(lp2553
S'Adventure'
p2554
aS'Animation'
p2555
aS'Children'
p2556
aS'Sci-Fi'
p2557
asI767
(lp2558
S'Comedy'
p2559
aS'Crime'
p2560
aS'Thriller'
p2561
asI768
(lp2562
S'Drama'
p2563
aS'Romance'
p2564
asI769
(lp2565
S'Comedy'
p2566
aS'Romance'
p2567
asI770
(lp2568
g300
asI771
(lp2569
g70
asI772
(lp2570
g70
asI773
(lp2571
S'Adventure'
p2572
aS'Comedy'
p2573
aS'Crime'
p2574
asI774
(lp2575
S'Comedy'
p2576
aS'Drama'
p2577
asI775
(lp2578
S'Drama'
p2579
aS'Thriller'
p2580
aS'War'
p2581
asI776
(lp2582
S'Crime'
p2583
aS'Drama'
p2584
aS'Thriller'
p2585
asI777
(lp2586
g70
asI778
(lp2587
S'Action'
p2588
aS'Adventure'
p2589
aS'Comedy'
p2590
aS'Sci-Fi'
p2591
asI779
(lp2592
S'Comedy'
p2593
aS'Romance'
p2594
aS'Sci-Fi'
p2595
asI780
(lp2596
S'Drama'
p2597
aS'Romance'
p2598
asI781
(lp2599
S'Horror'
p2600
aS'Thriller'
p2601
asI782
(lp2602
S'Action'
p2603
aS'Drama'
p2604
asI783
(lp2605
S'Drama'
p2606
aS'War'
p2607
asI784
(lp2608
S'Mystery'
p2609
aS'Thriller'
p2610
asI785
(lp2611
S'Crime'
p2612
aS'Drama'
p2613
asI786
(lp2614
S'Comedy'
p2615
aS'Drama'
p2616
aS'Romance'
p2617
asI787
(lp2618
g70
asI788
(lp2619
g70
asI789
(lp2620
g70
asI790
(lp2621
S'Adventure'
p2622
aS'Animation'
p2623
aS'Children'
p2624
aS'Comedy'
p2625
aS'Fantasy'
p2626
aS'Romance'
p2627
asI791
(lp2628
S'Drama'
p2629
aS'Musical'
p2630
aS'Romance'
p2631
asI792
(lp2632
S'Action'
p2633
aS'Drama'
p2634
aS'Romance'
p2635
aS'War'
p2636
asI793
(lp2637
S'Comedy'
p2638
aS'Drama'
p2639
asI794
(lp2640
S'Adventure'
p2641
aS'Drama'
p2642
aS'Sci-Fi'
p2643
asI795
(lp2644
g19
asI796
(lp2645
S'Comedy'
p2646
aS'Romance'
p2647
asI797
(lp2648
S'Comedy'
p2649
aS'Horror'
p2650
asI798
(lp2651
g19
asI799
(lp2652
S'Comedy'
p2653
aS'Drama'
p2654
asI800
(lp2655
S'Action'
p2656
aS'Adventure'
p2657
aS'Drama'
p2658
aS'Sci-Fi'
p2659
asI801
(lp2660
S'Children'
p2661
aS'Comedy'
p2662
aS'Romance'
p2663
asI802
(lp2664
S'Drama'
p2665
aS'Horror'
p2666
aS'Mystery'
p2667
aS'Thriller'
p2668
asI803
(lp2669
S'Comedy'
p2670
aS'Drama'
p2671
aS'Romance'
p2672
asI804
(lp2673
g70
asI805
(lp2674
S'Comedy'
p2675
aS'Crime'
p2676
aS'Romance'
p2677
asI806
(lp2678
S'Drama'
p2679
aS'Fantasy'
p2680
aS'Mystery'
p2681
aS'Sci-Fi'
p2682
asI807
(lp2683
S'Crime'
p2684
aS'Drama'
p2685
asI808
(lp2686
S'Adventure'
p2687
aS'Animation'
p2688
aS'Children'
p2689
aS'Comedy'
p2690
aS'Fantasy'
p2691
asI809
(lp2692
S'Adventure'
p2693
aS'Children'
p2694
aS'Fantasy'
p2695
asI810
(lp2696
S'Drama'
p2697
aS'Fantasy'
p2698
aS'Horror'
p2699
aS'Thriller'
p2700
aS'War'
p2701
asI811
(lp2702
S'Crime'
p2703
aS'Thriller'
p2704
asI812
(lp2705
S'Drama'
p2706
aS'War'
p2707
asI813
(lp2708
S'Adventure'
p2709
aS'Fantasy'
p2710
asI814
(lp2711
S'Drama'
p2712
aS'Romance'
p2713
asI815
(lp2714
S'Adventure'
p2715
aS'Children'
p2716
aS'Comedy'
p2717
asI816
(lp2718
S'Comedy'
p2719
aS'Drama'
p2720
aS'War'
p2721
asI817
(lp2722
S'Drama'
p2723
aS'Romance'
p2724
asI818
(lp2725
S'Action'
p2726
aS'Sci-Fi'
p2727
aS'Thriller'
p2728
asI819
(lp2729
S'Adventure'
p2730
aS'Animation'
p2731
aS'Children'
p2732
aS'Comedy'
p2733
asI820
(lp2734
S'Action'
p2735
aS'Adventure'
p2736
aS'Sci-Fi'
p2737
aS'Thriller'
p2738
asI821
(lp2739
S'Comedy'
p2740
aS'Drama'
p2741
aS'Romance'
p2742
asI822
(lp2743
S'Action'
p2744
aS'Adventure'
p2745
aS'Sci-Fi'
p2746
aS'IMAX'
p2747
asI823
(lp2748
S'Action'
p2749
aS'Crime'
p2750
aS'Mystery'
p2751
aS'Sci-Fi'
p2752
aS'Thriller'
p2753
asI824
(lp2754
g70
asI825
(lp2755
S'Comedy'
p2756
aS'Drama'
p2757
aS'Romance'
p2758
asI826
(lp2759
S'Action'
p2760
aS'Comedy'
p2761
aS'Sci-Fi'
p2762
asI827
(lp2763
S'Crime'
p2764
aS'Drama'
p2765
asI828
(lp2766
g19
asI829
(lp2767
S'Horror'
p2768
aS'Sci-Fi'
p2769
aS'Thriller'
p2770
asI830
(lp2771
S'Action'
p2772
aS'Crime'
p2773
aS'Thriller'
p2774
asI831
(lp2775
S'Adventure'
p2776
aS'Animation'
p2777
aS'Fantasy'
p2778
asI832
(lp2779
S'Comedy'
p2780
aS'Romance'
p2781
asI833
(lp2782
S'Action'
p2783
aS'Horror'
p2784
aS'Mystery'
p2785
aS'Sci-Fi'
p2786
asI834
(lp2787
S'Drama'
p2788
aS'Horror'
p2789
aS'Sci-Fi'
p2790
aS'Thriller'
p2791
asI835
(lp2792
S'Adventure'
p2793
aS'Fantasy'
p2794
asI836
(lp2795
S'Adventure'
p2796
aS'Romance'
p2797
asI837
(lp2798
S'Action'
p2799
aS'Drama'
p2800
asI838
(lp2801
S'Action'
p2802
aS'Adventure'
p2803
aS'Thriller'
p2804
asI839
(lp2805
S'Comedy'
p2806
aS'Drama'
p2807
asI840
(lp2808
S'Horror'
p2809
aS'Thriller'
p2810
asI841
(lp2811
S'Crime'
p2812
aS'Drama'
p2813
aS'Thriller'
p2814
asI842
(lp2815
S'Comedy'
p2816
aS'Drama'
p2817
aS'Romance'
p2818
asI843
(lp2819
g2366
asI844
(lp2820
S'Comedy'
p2821
aS'Romance'
p2822
asI845
(lp2823
S'Adventure'
p2824
aS'Fantasy'
p2825
asI846
(lp2826
S'Crime'
p2827
aS'Drama'
p2828
asI847
(lp2829
S'Comedy'
p2830
aS'Romance'
p2831
asI848
(lp2832
S'Drama'
p2833
aS'Thriller'
p2834
asI849
(lp2835
S'Action'
p2836
aS'War'
p2837
asI850
(lp2838
S'Animation'
p2839
aS'Children'
p2840
aS'Drama'
p2841
aS'Fantasy'
p2842
asI851
(lp2843
g70
asI852
(lp2844
S'Crime'
p2845
aS'Drama'
p2846
asI853
(lp2847
S'Comedy'
p2848
aS'Crime'
p2849
aS'Drama'
p2850
aS'Musical'
p2851
asI854
(lp2852
S'Comedy'
p2853
aS'Drama'
p2854
asI855
(lp2855
S'Horror'
p2856
aS'Thriller'
p2857
asI856
(lp2858
S'Comedy'
p2859
aS'Romance'
p2860
asI857
(lp2861
S'Comedy'
p2862
aS'Drama'
p2863
aS'Romance'
p2864
asI858
(lp2865
S'Comedy'
p2866
aS'Drama'
p2867
aS'Romance'
p2868
asI859
(lp2869
S'Action'
p2870
aS'Adventure'
p2871
aS'Sci-Fi'
p2872
aS'Thriller'
p2873
asI860
(lp2874
S'Action'
p2875
aS'Adventure'
p2876
aS'Sci-Fi'
p2877
aS'Thriller'
p2878
aS'IMAX'
p2879
asI861
(lp2880
S'Adventure'
p2881
aS'Animation'
p2882
aS'Children'
p2883
aS'Comedy'
p2884
asI862
(lp2885
S'Action'
p2886
aS'Horror'
p2887
aS'Sci-Fi'
p2888
asI863
(lp2889
S'Action'
p2890
aS'Adventure'
p2891
aS'Sci-Fi'
p2892
asI864
(lp2893
g19
asI865
(lp2894
S'Action'
p2895
aS'Adventure'
p2896
aS'Comedy'
p2897
aS'Fantasy'
p2898
asI866
(lp2899
S'Action'
p2900
aS'Horror'
p2901
aS'Sci-Fi'
p2902
asI867
(lp2903
S'Comedy'
p2904
aS'Musical'
p2905
asI868
(lp2906
S'Action'
p2907
aS'Crime'
p2908
aS'Thriller'
p2909
asI869
(lp2910
S'Action'
p2911
aS'Adventure'
p2912
aS'Sci-Fi'
p2913
aS'Thriller'
p2914
aS'IMAX'
p2915
asI870
(lp2916
S'Comedy'
p2917
aS'Drama'
p2918
aS'Romance'
p2919
asI871
(lp2920
S'Action'
p2921
aS'Adventure'
p2922
aS'Drama'
p2923
aS'War'
p2924
asI872
(lp2925
S'Comedy'
p2926
aS'Drama'
p2927
aS'Romance'
p2928
asI873
(lp2929
S'Drama'
p2930
aS'Romance'
p2931
asI874
(lp2932
S'Action'
p2933
aS'Adventure'
p2934
aS'Drama'
p2935
aS'Fantasy'
p2936
asI875
(lp2937
S'Drama'
p2938
aS'Romance'
p2939
asI876
(lp2940
g19
asI877
(lp2941
S'Comedy'
p2942
aS'Romance'
p2943
asI878
(lp2944
S'Drama'
p2945
aS'Sci-Fi'
p2946
aS'Thriller'
p2947
asI879
(lp2948
S'Comedy'
p2949
aS'Romance'
p2950
asI880
(lp2951
S'Comedy'
p2952
aS'Romance'
p2953
asI881
(lp2954
S'Action'
p2955
aS'Drama'
p2956
aS'Thriller'
p2957
asI882
(lp2958
S'Action'
p2959
aS'Crime'
p2960
aS'Drama'
p2961
aS'Mystery'
p2962
aS'Thriller'
p2963
asI883
(lp2964
g19
asI884
(lp2965
S'Action'
p2966
aS'Adventure'
p2967
aS'Drama'
p2968
aS'War'
p2969
asI885
(lp2970
g316
asI886
(lp2971
S'Action'
p2972
aS'Sci-Fi'
p2973
asI887
(lp2974
S'Crime'
p2975
aS'Thriller'
p2976
asI888
(lp2977
S'Adventure'
p2978
aS'Animation'
p2979
aS'Children'
p2980
aS'Comedy'
p2981
aS'Musical'
p2982
aS'Romance'
p2983
asI889
(lp2984
S'Adventure'
p2985
aS'Fantasy'
p2986
aS'IMAX'
p2987
asI890
(lp2988
S'Comedy'
p2989
aS'Fantasy'
p2990
aS'Thriller'
p2991
asI891
(lp2992
g19
asI892
(lp2993
S'Comedy'
p2994
aS'Drama'
p2995
aS'Romance'
p2996
asI893
(lp2997
S'Drama'
p2998
aS'Romance'
p2999
asI894
(lp3000
S'Action'
p3001
aS'Adventure'
p3002
aS'Sci-Fi'
p3003
aS'IMAX'
p3004
asI895
(lp3005
S'Action'
p3006
aS'Adventure'
p3007
aS'Sci-Fi'
p3008
aS'Thriller'
p3009
asI896
(lp3010
S'Action'
p3011
aS'Crime'
p3012
aS'Thriller'
p3013
asI897
(lp3014
S'Action'
p3015
aS'Crime'
p3016
aS'Fantasy'
p3017
asI898
(lp3018
S'Drama'
p3019
aS'Mystery'
p3020
aS'Thriller'
p3021
asI899
(lp3022
S'Action'
p3023
aS'Crime'
p3024
aS'Drama'
p3025
aS'Thriller'
p3026
asI900
(lp3027
S'Comedy'
p3028
aS'Romance'
p3029
asI901
(lp3030
S'Action'
p3031
aS'Adventure'
p3032
aS'Sci-Fi'
p3033
asI902
(lp3034
S'Comedy'
p3035
aS'Romance'
p3036
asI903
(lp3037
S'Drama'
p3038
aS'Mystery'
p3039
aS'Sci-Fi'
p3040
aS'Thriller'
p3041
asI904
(lp3042
S'Animation'
p3043
aS'Children'
p3044
aS'Comedy'
p3045
asI905
(lp3046
S'Action'
p3047
aS'Drama'
p3048
aS'Thriller'
p3049
asI906
(lp3050
S'Comedy'
p3051
aS'Drama'
p3052
aS'Romance'
p3053
asI907
(lp3054
S'Horror'
p3055
aS'Mystery'
p3056
aS'Thriller'
p3057
asI908
(lp3058
g70
asI909
(lp3059
S'Action'
p3060
aS'Adventure'
p3061
aS'Animation'
p3062
aS'Children'
p3063
aS'Comedy'
p3064
asI910
(lp3065
S'Adventure'
p3066
aS'Animation'
p3067
aS'Children'
p3068
aS'Fantasy'
p3069
aS'IMAX'
p3070
asI911
(lp3071
S'Comedy'
p3072
aS'Drama'
p3073
aS'Romance'
p3074
asI912
(lp3075
g70
asI913
(lp3076
S'Action'
p3077
aS'Adventure'
p3078
aS'Drama'
p3079
aS'Mystery'
p3080
aS'Thriller'
p3081
asI914
(lp3082
S'Action'
p3083
aS'Comedy'
p3084
aS'Crime'
p3085
aS'Thriller'
p3086
asI915
(lp3087
S'Horror'
p3088
aS'Sci-Fi'
p3089
asI916
(lp3090
S'Drama'
p3091
aS'Romance'
p3092
asI917
(lp3093
S'Drama'
p3094
aS'War'
p3095
asI918
(lp3096
g70
asI919
(lp3097
S'Drama'
p3098
aS'Musical'
p3099
aS'Romance'
p3100
asI920
(lp3101
S'Comedy'
p3102
aS'Romance'
p3103
asI921
(lp3104
S'Comedy'
p3105
aS'Romance'
p3106
asI922
(lp3107
S'Action'
p3108
aS'Comedy'
p3109
asI923
(lp3110
S'Action'
p3111
aS'Crime'
p3112
aS'Drama'
p3113
aS'Thriller'
p3114
asI924
(lp3115
S'Adventure'
p3116
aS'Animation'
p3117
aS'Children'
p3118
aS'Comedy'
p3119
aS'Fantasy'
p3120
aS'Sci-Fi'
p3121
aS'IMAX'
p3122
asI925
(lp3123
S'Adventure'
p3124
aS'Comedy'
p3125
aS'Crime'
p3126
asI926
(lp3127
S'Action'
p3128
aS'Crime'
p3129
aS'Film-Noir'
p3130
aS'Mystery'
p3131
aS'Thriller'
p3132
asI927
(lp3133
S'Comedy'
p3134
aS'Drama'
p3135
aS'Romance'
p3136
asI928
(lp3137
S'Action'
p3138
aS'Drama'
p3139
aS'Romance'
p3140
aS'War'
p3141
asI929
(lp3142
S'Action'
p3143
aS'Adventure'
p3144
aS'Sci-Fi'
p3145
asI930
(lp3146
S'Action'
p3147
aS'Adventure'
p3148
aS'Comedy'
p3149
aS'Romance'
p3150
asI931
(lp3151
S'Action'
p3152
aS'Crime'
p3153
aS'IMAX'
p3154
asI932
(lp3155
S'Comedy'
p3156
aS'Fantasy'
p3157
aS'Romance'
p3158
asI933
(lp3159
S'Action'
p3160
aS'Adventure'
p3161
aS'Sci-Fi'
p3162
aS'Thriller'
p3163
asI934
(lp3164
S'Action'
p3165
aS'Sci-Fi'
p3166
aS'Thriller'
p3167
asI935
(lp3168
S'Crime'
p3169
aS'Drama'
p3170
asI936
(lp3171
g70
asI937
(lp3172
S'Drama'
p3173
aS'Romance'
p3174
asI938
(lp3175
S'Drama'
p3176
aS'Musical'
p3177
aS'Romance'
p3178
asI939
(lp3179
S'Crime'
p3180
aS'Drama'
p3181
aS'Romance'
p3182
asI940
(lp3183
S'Comedy'
p3184
aS'Musical'
p3185
asI941
(lp3186
S'Action'
p3187
aS'Sci-Fi'
p3188
aS'Thriller'
p3189
asI942
(lp3190
S'Animation'
p3191
aS'Children'
p3192
aS'Comedy'
p3193
asI943
(lp3194
S'Drama'
p3195
aS'Fantasy'
p3196
aS'Romance'
p3197
asI944
(lp3198
S'Drama'
p3199
aS'Fantasy'
p3200
aS'Mystery'
p3201
asI945
(lp3202
S'Action'
p3203
aS'Adventure'
p3204
aS'Sci-Fi'
p3205
aS'IMAX'
p3206
asI946
(lp3207
S'Action'
p3208
aS'Comedy'
p3209
asI947
(lp3210
g70
asI948
(lp3211
S'Adventure'
p3212
aS'Drama'
p3213
aS'Thriller'
p3214
asI949
(lp3215
S'Crime'
p3216
aS'Drama'
p3217
aS'Thriller'
p3218
asI950
(lp3219
S'Action'
p3220
aS'Adventure'
p3221
aS'Drama'
p3222
aS'Sci-Fi'
p3223
aS'Thriller'
p3224
asI951
(lp3225
S'Drama'
p3226
aS'Mystery'
p3227
aS'Sci-Fi'
p3228
aS'Thriller'
p3229
asI952
(lp3230
S'Drama'
p3231
aS'War'
p3232
asI953
(lp3233
S'Crime'
p3234
aS'Drama'
p3235
aS'Thriller'
p3236
asI954
(lp3237
S'Action'
p3238
aS'Adventure'
p3239
aS'Thriller'
p3240
asI955
(lp3241
S'Action'
p3242
aS'Sci-Fi'
p3243
aS'Thriller'
p3244
asI956
(lp3245
S'Comedy'
p3246
aS'Romance'
p3247
asI957
(lp3248
S'Drama'
p3249
aS'Musical'
p3250
asI958
(lp3251
S'Animation'
p3252
aS'Children'
p3253
aS'Drama'
p3254
asI959
(lp3255
S'Action'
p3256
aS'Fantasy'
p3257
aS'War'
p3258
aS'IMAX'
p3259
asI960
(lp3260
S'Comedy'
p3261
aS'Romance'
p3262
asI961
(lp3263
S'Drama'
p3264
aS'Romance'
p3265
asI962
(lp3266
S'Action'
p3267
aS'Crime'
p3268
aS'Thriller'
p3269
asI963
(lp3270
S'Action'
p3271
aS'Horror'
p3272
aS'Sci-Fi'
p3273
aS'Thriller'
p3274
aS'IMAX'
p3275
asI964
(lp3276
S'Comedy'
p3277
aS'Drama'
p3278
aS'Romance'
p3279
asI965
(lp3280
S'Comedy'
p3281
aS'Romance'
p3282
asI966
(lp3283
S'Comedy'
p3284
aS'Drama'
p3285
aS'Romance'
p3286
asI967
(lp3287
S'Action'
p3288
aS'Crime'
p3289
aS'Drama'
p3290
aS'IMAX'
p3291
asI968
(lp3292
S'Action'
p3293
aS'Adventure'
p3294
aS'Sci-Fi'
p3295
asI969
(lp3296
S'Comedy'
p3297
aS'Romance'
p3298
asI970
(lp3299
S'Comedy'
p3300
aS'Romance'
p3301
asI971
(lp3302
S'Adventure'
p3303
aS'Animation'
p3304
aS'Children'
p3305
aS'Romance'
p3306
aS'Sci-Fi'
p3307
asI972
(lp3308
S'Comedy'
p3309
aS'Musical'
p3310
aS'Romance'
p3311
asI973
(lp3312
g19
asI974
(lp3313
S'Comedy'
p3314
aS'Drama'
p3315
aS'Romance'
p3316
asI975
(lp3317
g19
asI976
(lp3318
S'Action'
p3319
aS'Adventure'
p3320
aS'Thriller'
p3321
asI977
(lp3322
S'Action'
p3323
aS'Adventure'
p3324
aS'Animation'
p3325
aS'Children'
p3326
aS'Comedy'
p3327
asI978
(lp3328
S'Drama'
p3329
aS'Fantasy'
p3330
aS'Romance'
p3331
aS'Thriller'
p3332
asI979
(lp3333
S'Crime'
p3334
aS'Drama'
p3335
asI980
(lp3336
g19
asI981
(lp3337
S'Comedy'
p3338
aS'Drama'
p3339
aS'Romance'
p3340
asI982
(lp3341
S'Action'
p3342
aS'Drama'
p3343
aS'War'
p3344
asI983
(lp3345
S'Drama'
p3346
aS'Mystery'
p3347
aS'Sci-Fi'
p3348
aS'Thriller'
p3349
asI984
(lp3350
S'Adventure'
p3351
aS'Animation'
p3352
aS'Children'
p3353
aS'Drama'
p3354
asI985
(lp3355
S'Comedy'
p3356
aS'Romance'
p3357
asI986
(lp3358
S'Comedy'
p3359
aS'Drama'
p3360
aS'Romance'
p3361
asI987
(lp3362
S'Adventure'
p3363
aS'Fantasy'
p3364
aS'Mystery'
p3365
aS'Romance'
p3366
aS'IMAX'
p3367
asI988
(lp3368
S'Comedy'
p3369
aS'Drama'
p3370
aS'Romance'
p3371
asI989
(lp3372
S'Mystery'
p3373
aS'Sci-Fi'
p3374
aS'Thriller'
p3375
asI990
(lp3376
S'Comedy'
p3377
aS'Drama'
p3378
aS'Romance'
p3379
asI991
(lp3380
S'Fantasy'
p3381
aS'Horror'
p3382
asI992
(lp3383
S'Adventure'
p3384
aS'Animation'
p3385
aS'Sci-Fi'
p3386
asI993
(lp3387
S'Animation'
p3388
aS'Children'
p3389
aS'Fantasy'
p3390
aS'IMAX'
p3391
asI994
(lp3392
S'Action'
p3393
aS'Comedy'
p3394
aS'Horror'
p3395
asI995
(lp3396
S'Drama'
p3397
aS'Romance'
p3398
asI996
(lp3399
S'Drama'
p3400
aS'Romance'
p3401
asI997
(lp3402
g70
asI998
(lp3403
S'Action'
p3404
aS'Drama'
p3405
aS'Sci-Fi'
p3406
aS'Thriller'
p3407
asI999
(lp3408
S'Drama'
p3409
aS'Fantasy'
p3410
aS'Horror'
p3411
aS'Romance'
p3412
aS'Thriller'
p3413
asI1000
(lp3414
g70
asI1001
(lp3415
S'Animation'
p3416
aS'Children'
p3417
aS'Fantasy'
p3418
aS'Musical'
p3419
aS'Romance'
p3420
asI1002
(lp3421
S'Action'
p3422
aS'Adventure'
p3423
aS'Sci-Fi'
p3424
aS'IMAX'
p3425
asI1003
(lp3426
S'Action'
p3427
aS'Crime'
p3428
aS'Mystery'
p3429
aS'Thriller'
p3430
asI1004
(lp3431
S'Comedy'
p3432
aS'Romance'
p3433
asI1005
(lp3434
S'Drama'
p3435
aS'Mystery'
p3436
aS'Thriller'
p3437
asI1006
(lp3438
S'Comedy'
p3439
aS'Documentary'
p3440
asI1007
(lp3441
S'Adventure'
p3442
aS'Comedy'
p3443
asI1008
(lp3444
S'Fantasy'
p3445
aS'Romance'
p3446
aS'Thriller'
p3447
aS'IMAX'
p3448
asI1009
(lp3449
S'Animation'
p3450
aS'Children'
p3451
aS'Comedy'
p3452
aS'Crime'
p3453
asI1010
(lp3454
S'Action'
p3455
aS'Crime'
p3456
aS'Drama'
p3457
aS'Mystery'
p3458
aS'Sci-Fi'
p3459
aS'Thriller'
p3460
aS'IMAX'
p3461
asI1011
(lp3462
S'Crime'
p3463
aS'Drama'
p3464
aS'Thriller'
p3465
asI1012
(lp3466
S'Comedy'
p3467
aS'Romance'
p3468
asI1013
(lp3469
g250
asI1014
(lp3470
S'Comedy'
p3471
aS'Drama'
p3472
aS'Romance'
p3473
asI1015
(lp3474
g70
asI1016
(lp3475
S'Animation'
p3476
aS'Children'
p3477
aS'Comedy'
p3478
aS'Fantasy'
p3479
aS'Musical'
p3480
aS'Romance'
p3481
aS'IMAX'
p3482
asI1017
(lp3483
S'Comedy'
p3484
aS'Drama'
p3485
aS'Romance'
p3486
asI1018
(lp3487
S'Comedy'
p3488
aS'Drama'
p3489
aS'Romance'
p3490
asI1019
(lp3491
S'Sci-Fi'
p3492
aS'Thriller'
p3493
asI1020
(lp3494
S'Comedy'
p3495
aS'Romance'
p3496
asI1021
(lp3497
S'Romance'
p3498
aS'Sci-Fi'
p3499
aS'Thriller'
p3500
asI1022
(lp3501
S'Action'
p3502
aS'Drama'
p3503
aS'Mystery'
p3504
aS'Sci-Fi'
p3505
aS'Thriller'
p3506
asI1023
(lp3507
g19
asI1024
(lp3508
S'Drama'
p3509
aS'Romance'
p3510
asI1025
(lp3511
S'Action'
p3512
aS'Adventure'
p3513
aS'Animation'
p3514
aS'Children'
p3515
aS'Comedy'
p3516
aS'IMAX'
p3517
asI1026
(lp3518
S'Comedy'
p3519
aS'Drama'
p3520
aS'Romance'
p3521
asI1027
(lp3522
g70
asI1028
(lp3523
S'Action'
p3524
aS'Adventure'
p3525
aS'Sci-Fi'
p3526
aS'IMAX'
p3527
asI1029
(lp3528
g70
asI1030
(lp3529
S'Adventure'
p3530
aS'Drama'
p3531
aS'Fantasy'
p3532
aS'Romance'
p3533
asI1031
(lp3534
S'Action'
p3535
aS'Adventure'
p3536
aS'Drama'
p3537
aS'Sci-Fi'
p3538
aS'Thriller'
p3539
asI1032
(lp3540
S'Action'
p3541
aS'Adventure'
p3542
aS'Crime'
p3543
aS'IMAX'
p3544
asI1033
(lp3545
S'Drama'
p3546
aS'Thriller'
p3547
asI1034
(lp3548
S'Comedy'
p3549
aS'Drama'
p3550
asI1035
(lp3551
S'Comedy'
p3552
aS'Drama'
p3553
asI1036
(lp3554
S'Action'
p3555
aS'Horror'
p3556
aS'Sci-Fi'
p3557
aS'IMAX'
p3558
asI1037
(lp3559
S'Action'
p3560
aS'Adventure'
p3561
aS'Animation'
p3562
aS'Children'
p3563
asI1038
(lp3564
S'Drama'
p3565
aS'Romance'
p3566
asI1039
(lp3567
S'Action'
p3568
aS'Adventure'
p3569
aS'Sci-Fi'
p3570
aS'IMAX'
p3571
asI1040
(lp3572
S'Adventure'
p3573
aS'Animation'
p3574
aS'Comedy'
p3575
asI1041
(lp3576
S'Action'
p3577
aS'Adventure'
p3578
aS'Thriller'
p3579
aS'IMAX'
p3580
asI1042
(lp3581
S'Action'
p3582
aS'Crime'
p3583
aS'Sci-Fi'
p3584
asI1043
(lp3585
S'Drama'
p3586
aS'Romance'
p3587
asI1044
(lp3588
S'Adventure'
p3589
aS'Drama'
p3590
aS'IMAX'
p3591
asI1045
(lp3592
S'Adventure'
p3593
aS'Drama'
p3594
aS'Fantasy'
p3595
aS'Romance'
p3596
aS'IMAX'
p3597
asI1046
(lp3598
S'Action'
p3599
aS'Drama'
p3600
aS'Western'
p3601
asI1047
(lp3602
S'Action'
p3603
aS'Adventure'
p3604
aS'Sci-Fi'
p3605
aS'IMAX'
p3606
asI1048
(lp3607
S'Action'
p3608
aS'Drama'
p3609
aS'Horror'
p3610
aS'IMAX'
p3611
asI1049
(lp3612
S'Animation'
p3613
aS'Children'
p3614
aS'Comedy'
p3615
aS'IMAX'
p3616
asI1050
(lp3617
S'Action'
p3618
aS'Drama'
p3619
aS'Thriller'
p3620
aS'IMAX'
p3621
asI1051
(lp3622
S'Drama'
p3623
aS'Fantasy'
p3624
aS'Romance'
p3625
asI1052
(lp3626
S'Action'
p3627
aS'Sci-Fi'
p3628
aS'IMAX'
p3629
asI1053
(lp3630
S'Comedy'
p3631
aS'Drama'
p3632
aS'Romance'
p3633
asI1054
(lp3634
S'Adventure'
p3635
aS'Drama'
p3636
aS'Thriller'
p3637
aS'IMAX'
p3638
asI1055
(lp3639
S'Adventure'
p3640
aS'Fantasy'
p3641
aS'IMAX'
p3642
asI1056
(lp3643
S'Adventure'
p3644
aS'Animation'
p3645
aS'Comedy'
p3646
aS'Fantasy'
p3647
aS'Musical'
p3648
aS'Romance'
p3649
asI1057
(lp3650
S'Comedy'
p3651
aS'Crime'
p3652
aS'Drama'
p3653
asI1058
(lp3654
S'Comedy'
p3655
aS'Drama'
p3656
asI1059
(lp3657
S'Comedy'
p3658
aS'Drama'
p3659
asI1060
(lp3660
S'Sci-Fi'
p3661
aS'IMAX'
p3662
asI1061
(lp3663
S'Comedy'
p3664
aS'Drama'
p3665
aS'Romance'
p3666
asI1062
(lp3667
S'Action'
p3668
aS'Adventure'
p3669
aS'Sci-Fi'
p3670
aS'IMAX'
p3671
asI1063
(lp3672
S'Action'
p3673
aS'Sci-Fi'
p3674
aS'IMAX'
p3675
asI1064
(lp3676
S'Action'
p3677
aS'Animation'
p3678
aS'Children'
p3679
asI1065
(lp3680
g70
asI1066
(lp3681
S'Drama'
p3682
aS'Thriller'
p3683
asI1067
(lp3684
S'Action'
p3685
aS'Adventure'
p3686
aS'Sci-Fi'
p3687
asI1068
(lp3688
S'Comedy'
p3689
aS'Drama'
p3690
asI1069
(lp3691
S'Comedy'
p3692
aS'Drama'
p3693
asI1070
(lp3694
S'Crime'
p3695
aS'Drama'
p3696
aS'Thriller'
p3697
asI1071
(lp3698
S'Action'
p3699
aS'Thriller'
p3700
asI1072
(lp3701
S'Drama'
p3702
aS'Sci-Fi'
p3703
aS'Thriller'
p3704
asI1073
(lp3705
S'Action'
p3706
aS'Adventure'
p3707
aS'Comedy'
p3708
aS'Crime'
p3709
asI1074
(lp3710
S'Action'
p3711
aS'Thriller'
p3712
asI1075
(lp3713
S'Action'
p3714
aS'Adventure'
p3715
aS'Sci-Fi'
p3716
aS'Thriller'
p3717
asI1076
(lp3718
S'Action'
p3719
aS'Adventure'
p3720
aS'Fantasy'
p3721
aS'Sci-Fi'
p3722
aS'IMAX'
p3723
asI1077
(lp3724
S'Action'
p3725
aS'Adventure'
p3726
aS'Comedy'
p3727
aS'Sci-Fi'
p3728
asI1078
(lp3729
S'Action'
p3730
aS'Adventure'
p3731
aS'Sci-Fi'
p3732
asI1079
(lp3733
S'Action'
p3734
aS'Adventure'
p3735
aS'Fantasy'
p3736
aS'Sci-Fi'
p3737
asI1080
(lp3738
S'Comedy'
p3739
aS'Drama'
p3740
asI1081
(lp3741
g250
asI1082
(lp3742
S'Adventure'
p3743
aS'Drama'
p3744
aS'Sci-Fi'
p3745
asI1083
(lp3746
S'Adventure'
p3747
aS'Animation'
p3748
aS'Children'
p3749
aS'Comedy'
p3750
aS'Drama'
p3751
aS'Fantasy'
p3752
asI1084
(lp3753
S'Action'
p3754
aS'Adventure'
p3755
aS'Crime'
p3756
asI1085
(lp3757
S'Comedy'
p3758
aS'Drama'
p3759
asI1086
(lp3760
g19
asI1087
(lp3761
S'Drama'
p3762
aS'Thriller'
p3763
asI1088
(lp3764
g300
asI1089
(lp3765
S'Action'
p3766
aS'Adventure'
p3767
aS'Animation'
p3768
aS'Children'
p3769
aS'Comedy'
p3770
asI1090
(lp3771
S'Animation'
p3772
aS'Comedy'
p3773
asI1091
(lp3774
g70
asI1092
(lp3775
S'Action'
p3776
aS'Adventure'
p3777
aS'Fantasy'
p3778
aS'Sci-Fi'
p3779
asI1093
(lp3780
S'Adventure'
p3781
aS'Drama'
p3782
aS'Romance'
p3783
aS'Sci-Fi'
p3784
as.