(lp0
(I1
I1
tp1
a(I1
I3
tp2
a(I1
I6
tp3
a(I1
I32
tp4
a(I1
I33
tp5
a(I1
I42
tp6
a(I1
I53
tp7
a(I1
I58
tp8
a(I1
I69
tp9
a(I1
I71
tp10
a(I1
I77
tp11
a(I1
I107
tp12
a(I1
I112
tp13
a(I1
I116
tp14
a(I1
I119
tp15
a(I1
I135
tp16
a(I1
I156
tp17
a(I1
I167
tp18
a(I1
I175
tp19
a(I1
I186
tp20
a(I1
I193
tp21
a(I1
I199
tp22
a(I1
I202
tp23
a(I1
I221
tp24
a(I1
I228
tp25
a(I1
I234
tp26
a(I1
I244
tp27
a(I1
I253
tp28
a(I1
I264
tp29
a(I1
I275
tp30
a(I1
I278
tp31
a(I1
I279
tp32
a(I1
I286
tp33
a(I1
I287
tp34
a(I1
I288
tp35
a(I1
I291
tp36
a(I1
I295
tp37
a(I1
I304
tp38
a(I1
I305
tp39
a(I1
I308
tp40
a(I1
I320
tp41
a(I1
I321
tp42
a(I1
I328
tp43
a(I1
I336
tp44
a(I1
I362
tp45
a(I1
I365
tp46
a(I1
I369
tp47
a(I1
I370
tp48
a(I1
I371
tp49
a(I1
I380
tp50
a(I1
I381
tp51
a(I1
I382
tp52
a(I1
I383
tp53
a(I1
I385
tp54
a(I1
I386
tp55
a(I1
I387
tp56
a(I1
I388
tp57
a(I1
I390
tp58
a(I1
I392
tp59
a(I1
I394
tp60
a(I1
I397
tp61
a(I1
I400
tp62
a(I1
I405
tp63
a(I1
I406
tp64
a(I1
I407
tp65
a(I1
I411
tp66
a(I1
I416
tp67
a(I1
I417
tp68
a(I1
I422
tp69
a(I1
I423
tp70
a(I1
I424
tp71
a(I1
I428
tp72
a(I1
I429
tp73
a(I1
I430
tp74
a(I1
I432
tp75
a(I1
I433
tp76
a(I1
I434
tp77
a(I1
I435
tp78
a(I1
I436
tp79
a(I1
I437
tp80
a(I1
I439
tp81
a(I1
I440
tp82
a(I1
I444
tp83
a(I1
I445
tp84
a(I1
I448
tp85
a(I1
I450
tp86
a(I1
I452
tp87
a(I1
I453
tp88
a(I1
I455
tp89
a(I1
I458
tp90
a(I1
I459
tp91
a(I1
I464
tp92
a(I1
I469
tp93
a(I1
I472
tp94
a(I1
I474
tp95
a(I1
I476
tp96
a(I1
I479
tp97
a(I1
I480
tp98
a(I1
I481
tp99
a(I1
I484
tp100
a(I1
I485
tp101
a(I1
I486
tp102
a(I1
I489
tp103
a(I1
I496
tp104
a(I1
I498
tp105
a(I1
I499
tp106
a(I1
I502
tp107
a(I1
I505
tp108
a(I1
I512
tp109
a(I1
I515
tp110
a(I1
I517
tp111
a(I1
I518
tp112
a(I1
I519
tp113
a(I1
I535
tp114
a(I1
I537
tp115
a(I1
I539
tp116
a(I1
I541
tp117
a(I1
I544
tp118
a(I1
I547
tp119
a(I1
I549
tp120
a(I1
I550
tp121
a(I1
I554
tp122
a(I1
I555
tp123
a(I1
I556
tp124
a(I1
I557
tp125
a(I1
I558
tp126
a(I1
I559
tp127
a(I1
I562
tp128
a(I1
I566
tp129
a(I1
I567
tp130
a(I1
I568
tp131
a(I1
I569
tp132
a(I1
I570
tp133
a(I1
I572
tp134
a(I1
I574
tp135
a(I1
I575
tp136
a(I1
I576
tp137
a(I1
I577
tp138
a(I1
I578
tp139
a(I1
I579
tp140
a(I1
I582
tp141
a(I1
I583
tp142
a(I1
I585
tp143
a(I1
I588
tp144
a(I1
I589
tp145
a(I1
I590
tp146
a(I1
I594
tp147
a(I1
I597
tp148
a(I1
I599
tp149
a(I1
I601
tp150
a(I1
I603
tp151
a(I1
I604
tp152
a(I1
I605
tp153
a(I1
I607
tp154
a(I1
I608
tp155
a(I1
I609
tp156
a(I1
I612
tp157
a(I1
I613
tp158
a(I1
I614
tp159
a(I1
I616
tp160
a(I1
I617
tp161
a(I1
I619
tp162
a(I1
I620
tp163
a(I1
I621
tp164
a(I1
I622
tp165
a(I1
I624
tp166
a(I1
I625
tp167
a(I1
I627
tp168
a(I1
I630
tp169
a(I1
I632
tp170
a(I1
I633
tp171
a(I1
I634
tp172
a(I1
I635
tp173
a(I1
I636
tp174
a(I1
I637
tp175
a(I1
I638
tp176
a(I1
I639
tp177
a(I1
I640
tp178
a(I1
I644
tp179
a(I1
I646
tp180
a(I1
I649
tp181
a(I1
I651
tp182
a(I1
I656
tp183
a(I1
I657
tp184
a(I1
I660
tp185
a(I1
I661
tp186
a(I1
I664
tp187
a(I1
I666
tp188
a(I1
I669
tp189
a(I1
I670
tp190
a(I1
I671
tp191
a(I1
I672
tp192
a(I1
I673
tp193
a(I1
I675
tp194
a(I1
I676
tp195
a(I1
I677
tp196
a(I1
I678
tp197
a(I1
I679
tp198
a(I1
I681
tp199
a(I1
I682
tp200
a(I1
I684
tp201
a(I1
I685
tp202
a(I1
I687
tp203
a(I1
I691
tp204
a(I1
I694
tp205
a(I1
I697
tp206
a(I1
I700
tp207
a(I1
I701
tp208
a(I1
I702
tp209
a(I1
I704
tp210
a(I1
I711
tp211
a(I1
I714
tp212
a(I1
I715
tp213
a(I1
I716
tp214
a(I1
I717
tp215
a(I1
I718
tp216
a(I1
I719
tp217
a(I1
I721
tp218
a(I1
I726
tp219
a(I1
I730
tp220
a(I1
I732
tp221
a(I1
I735
tp222
a(I1
I737
tp223
a(I1
I738
tp224
a(I1
I739
tp225
a(I1
I741
tp226
a(I1
I743
tp227
a(I1
I744
tp228
a(I1
I747
tp229
a(I1
I749
tp230
a(I1
I766
tp231
a(I1
I816
tp232
a(I2
I169
tp233
a(I2
I175
tp234
a(I2
I509
tp235
a(I2
I730
tp236
a(I2
I868
tp237
a(I2
I899
tp238
a(I2
I946
tp239
a(I2
I949
tp240
a(I2
I967
tp241
a(I2
I973
tp242
a(I2
I982
tp243
a(I2
I994
tp244
a(I2
I1005
tp245
a(I2
I1006
tp246
a(I2
I1010
tp247
a(I2
I1011
tp248
a(I2
I1013
tp249
a(I2
I1023
tp250
a(I2
I1029
tp251
a(I2
I1032
tp252
a(I2
I1033
tp253
a(I2
I1046
tp254
a(I2
I1057
tp255
a(I2
I1060
tp256
a(I2
I1065
tp257
a(I2
I1070
tp258
a(I2
I1072
tp259
a(I2
I1075
tp260
a(I2
I1081
tp261
a(I3
I22
tp262
a(I3
I264
tp263
a(I3
I303
tp264
a(I3
I309
tp265
a(I3
I319
tp266
a(I3
I345
tp267
a(I3
I361
tp268
a(I3
I408
tp269
a(I3
I415
tp270
a(I3
I447
tp271
a(I3
I451
tp272
a(I3
I452
tp273
a(I3
I460
tp274
a(I3
I468
tp275
a(I3
I489
tp276
a(I3
I550
tp277
a(I3
I563
tp278
a(I3
I566
tp279
a(I3
I572
tp280
a(I3
I593
tp281
a(I3
I611
tp282
a(I3
I659
tp283
a(I3
I680
tp284
a(I3
I699
tp285
a(I3
I739
tp286
a(I3
I759
tp287
a(I3
I797
tp288
a(I3
I815
tp289
a(I3
I818
tp290
a(I3
I833
tp291
a(I3
I834
tp292
a(I3
I843
tp293
a(I3
I857
tp294
a(I3
I866
tp295
a(I3
I885
tp296
a(I3
I886
tp297
a(I3
I915
tp298
a(I3
I991
tp299
a(I3
I998
tp300
a(I4
I16
tp301
a(I4
I23
tp302
a(I4
I30
tp303
a(I4
I32
tp304
a(I4
I34
tp305
a(I4
I36
tp306
a(I4
I57
tp307
a(I4
I61
tp308
a(I4
I62
tp309
a(I4
I76
tp310
a(I4
I81
tp311
a(I4
I84
tp312
a(I4
I93
tp313
a(I4
I106
tp314
a(I4
I111
tp315
a(I4
I117
tp316
a(I4
I119
tp317
a(I4
I125
tp318
a(I4
I135
tp319
a(I4
I138
tp320
a(I4
I156
tp321
a(I4
I170
tp322
a(I4
I180
tp323
a(I4
I183
tp324
a(I4
I185
tp325
a(I4
I188
tp326
a(I4
I194
tp327
a(I4
I203
tp328
a(I4
I219
tp329
a(I4
I228
tp330
a(I4
I231
tp331
a(I4
I234
tp332
a(I4
I242
tp333
a(I4
I249
tp334
a(I4
I257
tp335
a(I4
I271
tp336
a(I4
I272
tp337
a(I4
I279
tp338
a(I4
I284
tp339
a(I4
I288
tp340
a(I4
I290
tp341
a(I4
I293
tp342
a(I4
I295
tp343
a(I4
I304
tp344
a(I4
I314
tp345
a(I4
I324
tp346
a(I4
I333
tp347
a(I4
I353
tp348
a(I4
I354
tp349
a(I4
I355
tp350
a(I4
I356
tp351
a(I4
I357
tp352
a(I4
I358
tp353
a(I4
I359
tp354
a(I4
I360
tp355
a(I4
I361
tp356
a(I4
I362
tp357
a(I4
I363
tp358
a(I4
I367
tp359
a(I4
I368
tp360
a(I4
I383
tp361
a(I4
I391
tp362
a(I4
I393
tp363
a(I4
I394
tp364
a(I4
I397
tp365
a(I4
I398
tp366
a(I4
I399
tp367
a(I4
I400
tp368
a(I4
I402
tp369
a(I4
I403
tp370
a(I4
I409
tp371
a(I4
I414
tp372
a(I4
I417
tp373
a(I4
I419
tp374
a(I4
I420
tp375
a(I4
I421
tp376
a(I4
I422
tp377
a(I4
I423
tp378
a(I4
I424
tp379
a(I4
I425
tp380
a(I4
I427
tp381
a(I4
I431
tp382
a(I4
I432
tp383
a(I4
I434
tp384
a(I4
I438
tp385
a(I4
I443
tp386
a(I4
I446
tp387
a(I4
I448
tp388
a(I4
I449
tp389
a(I4
I454
tp390
a(I4
I455
tp391
a(I4
I456
tp392
a(I4
I457
tp393
a(I4
I458
tp394
a(I4
I461
tp395
a(I4
I471
tp396
a(I4
I477
tp397
a(I4
I478
tp398
a(I4
I480
tp399
a(I4
I481
tp400
a(I4
I486
tp401
a(I4
I491
tp402
a(I4
I496
tp403
a(I4
I501
tp404
a(I4
I509
tp405
a(I4
I510
tp406
a(I4
I512
tp407
a(I4
I513
tp408
a(I4
I514
tp409
a(I4
I520
tp410
a(I4
I522
tp411
a(I4
I525
tp412
a(I4
I526
tp413
a(I4
I527
tp414
a(I4
I528
tp415
a(I4
I529
tp416
a(I4
I531
tp417
a(I4
I532
tp418
a(I4
I536
tp419
a(I4
I538
tp420
a(I4
I540
tp421
a(I4
I541
tp422
a(I4
I542
tp423
a(I4
I551
tp424
a(I4
I561
tp425
a(I4
I562
tp426
a(I4
I573
tp427
a(I4
I580
tp428
a(I4
I581
tp429
a(I4
I583
tp430
a(I4
I584
tp431
a(I4
I586
tp432
a(I4
I587
tp433
a(I4
I592
tp434
a(I4
I596
tp435
a(I4
I598
tp436
a(I4
I600
tp437
a(I4
I602
tp438
a(I4
I606
tp439
a(I4
I607
tp440
a(I4
I608
tp441
a(I4
I615
tp442
a(I4
I625
tp443
a(I4
I629
tp444
a(I4
I631
tp445
a(I4
I634
tp446
a(I4
I642
tp447
a(I4
I644
tp448
a(I4
I648
tp449
a(I4
I652
tp450
a(I4
I653
tp451
a(I4
I654
tp452
a(I4
I655
tp453
a(I4
I658
tp454
a(I4
I660
tp455
a(I4
I662
tp456
a(I4
I667
tp457
a(I4
I668
tp458
a(I4
I673
tp459
a(I4
I674
tp460
a(I4
I679
tp461
a(I4
I681
tp462
a(I4
I683
tp463
a(I4
I686
tp464
a(I4
I688
tp465
a(I4
I689
tp466
a(I4
I693
tp467
a(I4
I696
tp468
a(I4
I697
tp469
a(I4
I698
tp470
a(I4
I703
tp471
a(I4
I706
tp472
a(I4
I709
tp473
a(I4
I710
tp474
a(I4
I711
tp475
a(I4
I712
tp476
a(I4
I720
tp477
a(I4
I721
tp478
a(I4
I723
tp479
a(I4
I728
tp480
a(I4
I731
tp481
a(I4
I746
tp482
a(I4
I749
tp483
a(I4
I751
tp484
a(I4
I756
tp485
a(I4
I757
tp486
a(I4
I761
tp487
a(I4
I764
tp488
a(I4
I765
tp489
a(I4
I768
tp490
a(I4
I770
tp491
a(I4
I771
tp492
a(I4
I773
tp493
a(I4
I774
tp494
a(I4
I775
tp495
a(I4
I776
tp496
a(I4
I777
tp497
a(I4
I778
tp498
a(I4
I780
tp499
a(I4
I782
tp500
a(I4
I784
tp501
a(I4
I785
tp502
a(I4
I786
tp503
a(I4
I787
tp504
a(I4
I788
tp505
a(I4
I789
tp506
a(I4
I791
tp507
a(I4
I793
tp508
a(I4
I795
tp509
a(I4
I799
tp510
a(I4
I803
tp511
a(I4
I804
tp512
a(I4
I807
tp513
a(I4
I809
tp514
a(I4
I810
tp515
a(I4
I812
tp516
a(I5
I1
tp517
a(I5
I16
tp518
a(I5
I24
tp519
a(I5
I25
tp520
a(I5
I26
tp521
a(I5
I33
tp522
a(I5
I36
tp523
a(I5
I58
tp524
a(I5
I68
tp525
a(I5
I70
tp526
a(I5
I117
tp527
a(I5
I125
tp528
a(I5
I130
tp529
a(I5
I136
tp530
a(I5
I138
tp531
a(I5
I139
tp532
a(I5
I152
tp533
a(I5
I156
tp534
a(I5
I157
tp535
a(I5
I167
tp536
a(I5
I169
tp537
a(I5
I182
tp538
a(I5
I186
tp539
a(I5
I194
tp540
a(I5
I200
tp541
a(I5
I202
tp542
a(I5
I210
tp543
a(I5
I215
tp544
a(I5
I234
tp545
a(I5
I241
tp546
a(I5
I242
tp547
a(I5
I260
tp548
a(I5
I264
tp549
a(I5
I266
tp550
a(I5
I268
tp551
a(I5
I284
tp552
a(I5
I285
tp553
a(I5
I286
tp554
a(I5
I287
tp555
a(I5
I289
tp556
a(I5
I290
tp557
a(I5
I291
tp558
a(I5
I292
tp559
a(I5
I295
tp560
a(I6
I2
tp561
a(I6
I3
tp562
a(I6
I4
tp563
a(I6
I5
tp564
a(I6
I6
tp565
a(I6
I7
tp566
a(I6
I8
tp567
a(I6
I9
tp568
a(I6
I10
tp569
a(I6
I11
tp570
a(I6
I12
tp571
a(I6
I13
tp572
a(I6
I14
tp573
a(I6
I15
tp574
a(I6
I16
tp575
a(I6
I17
tp576
a(I6
I18
tp577
a(I6
I19
tp578
a(I6
I20
tp579
a(I6
I21
tp580
a(I6
I22
tp581
a(I6
I23
tp582
a(I6
I24
tp583
a(I6
I25
tp584
a(I6
I27
tp585
a(I6
I28
tp586
a(I6
I30
tp587
a(I6
I31
tp588
a(I6
I32
tp589
a(I6
I33
tp590
a(I6
I35
tp591
a(I6
I37
tp592
a(I6
I38
tp593
a(I6
I39
tp594
a(I6
I40
tp595
a(I6
I41
tp596
a(I6
I43
tp597
a(I6
I44
tp598
a(I6
I45
tp599
a(I6
I46
tp600
a(I6
I47
tp601
a(I6
I48
tp602
a(I6
I49
tp603
a(I6
I50
tp604
a(I6
I51
tp605
a(I6
I52
tp606
a(I6
I54
tp607
a(I6
I55
tp608
a(I6
I56
tp609
a(I6
I58
tp610
a(I6
I59
tp611
a(I6
I60
tp612
a(I6
I62
tp613
a(I6
I63
tp614
a(I6
I64
tp615
a(I6
I65
tp616
a(I6
I66
tp617
a(I6
I67
tp618
a(I6
I68
tp619
a(I6
I69
tp620
a(I6
I70
tp621
a(I6
I72
tp622
a(I6
I73
tp623
a(I6
I74
tp624
a(I6
I75
tp625
a(I6
I77
tp626
a(I6
I78
tp627
a(I6
I79
tp628
a(I6
I80
tp629
a(I6
I81
tp630
a(I6
I83
tp631
a(I6
I85
tp632
a(I6
I86
tp633
a(I6
I87
tp634
a(I6
I88
tp635
a(I6
I89
tp636
a(I6
I90
tp637
a(I6
I92
tp638
a(I6
I94
tp639
a(I6
I96
tp640
a(I6
I97
tp641
a(I6
I98
tp642
a(I6
I99
tp643
a(I6
I100
tp644
a(I6
I101
tp645
a(I6
I102
tp646
a(I6
I103
tp647
a(I6
I104
tp648
a(I6
I105
tp649
a(I6
I107
tp650
a(I6
I108
tp651
a(I6
I109
tp652
a(I6
I110
tp653
a(I6
I111
tp654
a(I6
I113
tp655
a(I6
I114
tp656
a(I6
I115
tp657
a(I6
I116
tp658
a(I6
I118
tp659
a(I6
I120
tp660
a(I6
I121
tp661
a(I6
I122
tp662
a(I6
I123
tp663
a(I6
I124
tp664
a(I6
I126
tp665
a(I6
I127
tp666
a(I6
I128
tp667
a(I6
I129
tp668
a(I6
I130
tp669
a(I6
I131
tp670
a(I6
I132
tp671
a(I6
I133
tp672
a(I6
I134
tp673
a(I6
I136
tp674
a(I6
I137
tp675
a(I6
I138
tp676
a(I6
I139
tp677
a(I6
I140
tp678
a(I6
I141
tp679
a(I6
I142
tp680
a(I6
I143
tp681
a(I6
I144
tp682
a(I6
I145
tp683
a(I6
I146
tp684
a(I6
I147
tp685
a(I6
I148
tp686
a(I6
I149
tp687
a(I6
I150
tp688
a(I6
I151
tp689
a(I6
I153
tp690
a(I6
I154
tp691
a(I6
I155
tp692
a(I6
I156
tp693
a(I6
I158
tp694
a(I6
I159
tp695
a(I6
I160
tp696
a(I6
I162
tp697
a(I6
I163
tp698
a(I6
I164
tp699
a(I6
I165
tp700
a(I6
I166
tp701
a(I6
I167
tp702
a(I6
I168
tp703
a(I6
I169
tp704
a(I6
I171
tp705
a(I6
I172
tp706
a(I6
I173
tp707
a(I6
I174
tp708
a(I6
I175
tp709
a(I6
I176
tp710
a(I6
I177
tp711
a(I6
I178
tp712
a(I6
I179
tp713
a(I6
I180
tp714
a(I6
I181
tp715
a(I6
I182
tp716
a(I6
I184
tp717
a(I6
I185
tp718
a(I6
I186
tp719
a(I6
I187
tp720
a(I6
I188
tp721
a(I6
I189
tp722
a(I6
I190
tp723
a(I6
I191
tp724
a(I6
I192
tp725
a(I6
I193
tp726
a(I6
I194
tp727
a(I6
I195
tp728
a(I6
I196
tp729
a(I6
I197
tp730
a(I6
I198
tp731
a(I6
I199
tp732
a(I6
I200
tp733
a(I6
I201
tp734
a(I6
I202
tp735
a(I6
I203
tp736
a(I6
I204
tp737
a(I6
I205
tp738
a(I6
I206
tp739
a(I6
I208
tp740
a(I6
I209
tp741
a(I6
I210
tp742
a(I6
I211
tp743
a(I6
I212
tp744
a(I6
I213
tp745
a(I6
I214
tp746
a(I6
I215
tp747
a(I6
I216
tp748
a(I6
I217
tp749
a(I6
I218
tp750
a(I6
I220
tp751
a(I6
I222
tp752
a(I6
I223
tp753
a(I6
I224
tp754
a(I6
I225
tp755
a(I6
I226
tp756
a(I6
I227
tp757
a(I6
I229
tp758
a(I6
I231
tp759
a(I6
I232
tp760
a(I6
I233
tp761
a(I6
I234
tp762
a(I6
I235
tp763
a(I6
I236
tp764
a(I6
I237
tp765
a(I6
I238
tp766
a(I6
I239
tp767
a(I6
I240
tp768
a(I6
I241
tp769
a(I6
I242
tp770
a(I6
I243
tp771
a(I6
I244
tp772
a(I6
I245
tp773
a(I6
I246
tp774
a(I6
I247
tp775
a(I6
I248
tp776
a(I6
I250
tp777
a(I6
I251
tp778
a(I6
I252
tp779
a(I6
I253
tp780
a(I6
I254
tp781
a(I6
I255
tp782
a(I6
I256
tp783
a(I6
I257
tp784
a(I6
I258
tp785
a(I6
I260
tp786
a(I6
I261
tp787
a(I6
I262
tp788
a(I6
I263
tp789
a(I6
I264
tp790
a(I6
I266
tp791
a(I6
I267
tp792
a(I6
I269
tp793
a(I6
I270
tp794
a(I6
I272
tp795
a(I6
I273
tp796
a(I6
I274
tp797
a(I6
I275
tp798
a(I6
I276
tp799
a(I6
I277
tp800
a(I6
I278
tp801
a(I6
I279
tp802
a(I6
I280
tp803
a(I6
I281
tp804
a(I6
I283
tp805
a(I6
I284
tp806
a(I6
I285
tp807
a(I6
I286
tp808
a(I6
I287
tp809
a(I6
I288
tp810
a(I6
I289
tp811
a(I6
I290
tp812
a(I6
I291
tp813
a(I6
I292
tp814
a(I6
I294
tp815
a(I6
I295
tp816
a(I6
I296
tp817
a(I6
I297
tp818
a(I6
I299
tp819
a(I6
I300
tp820
a(I6
I301
tp821
a(I6
I302
tp822
a(I6
I303
tp823
a(I6
I306
tp824
a(I6
I307
tp825
a(I6
I310
tp826
a(I6
I311
tp827
a(I6
I312
tp828
a(I6
I313
tp829
a(I6
I314
tp830
a(I6
I315
tp831
a(I6
I316
tp832
a(I6
I317
tp833
a(I6
I318
tp834
a(I6
I321
tp835
a(I6
I322
tp836
a(I6
I325
tp837
a(I6
I326
tp838
a(I6
I327
tp839
a(I6
I328
tp840
a(I6
I329
tp841
a(I6
I331
tp842
a(I6
I332
tp843
a(I6
I334
tp844
a(I6
I335
tp845
a(I6
I337
tp846
a(I6
I338
tp847
a(I6
I339
tp848
a(I6
I340
tp849
a(I6
I341
tp850
a(I6
I342
tp851
a(I6
I343
tp852
a(I6
I344
tp853
a(I6
I346
tp854
a(I6
I348
tp855
a(I6
I349
tp856
a(I6
I350
tp857
a(I6
I351
tp858
a(I6
I352
tp859
a(I6
I372
tp860
a(I6
I373
tp861
a(I6
I374
tp862
a(I6
I375
tp863
a(I6
I376
tp864
a(I6
I377
tp865
a(I6
I378
tp866
a(I6
I379
tp867
a(I6
I390
tp868
a(I6
I392
tp869
a(I6
I395
tp870
a(I6
I396
tp871
a(I6
I397
tp872
a(I6
I401
tp873
a(I6
I402
tp874
a(I7
I1
tp875
a(I7
I33
tp876
a(I7
I36
tp877
a(I7
I68
tp878
a(I7
I78
tp879
a(I7
I135
tp880
a(I7
I193
tp881
a(I7
I210
tp882
a(I7
I237
tp883
a(I7
I244
tp884
a(I7
I283
tp885
a(I7
I284
tp886
a(I7
I285
tp887
a(I7
I287
tp888
a(I7
I288
tp889
a(I7
I290
tp890
a(I7
I304
tp891
a(I7
I323
tp892
a(I7
I328
tp893
a(I7
I363
tp894
a(I7
I366
tp895
a(I7
I413
tp896
a(I7
I420
tp897
a(I7
I422
tp898
a(I7
I429
tp899
a(I7
I430
tp900
a(I7
I434
tp901
a(I7
I435
tp902
a(I7
I440
tp903
a(I7
I441
tp904
a(I7
I450
tp905
a(I7
I481
tp906
a(I7
I487
tp907
a(I7
I494
tp908
a(I7
I496
tp909
a(I7
I506
tp910
a(I7
I516
tp911
a(I7
I533
tp912
a(I7
I536
tp913
a(I7
I539
tp914
a(I7
I551
tp915
a(I7
I596
tp916
a(I7
I601
tp917
a(I7
I622
tp918
a(I7
I634
tp919
a(I7
I635
tp920
a(I7
I641
tp921
a(I7
I642
tp922
a(I7
I643
tp923
a(I7
I647
tp924
a(I7
I650
tp925
a(I7
I652
tp926
a(I7
I660
tp927
a(I7
I690
tp928
a(I7
I708
tp929
a(I7
I712
tp930
a(I7
I730
tp931
a(I7
I733
tp932
a(I7
I747
tp933
a(I7
I753
tp934
a(I7
I758
tp935
a(I7
I762
tp936
a(I7
I763
tp937
a(I7
I769
tp938
a(I7
I783
tp939
a(I7
I786
tp940
a(I7
I790
tp941
a(I7
I792
tp942
a(I7
I794
tp943
a(I7
I800
tp944
a(I7
I801
tp945
a(I7
I805
tp946
a(I7
I806
tp947
a(I7
I808
tp948
a(I7
I809
tp949
a(I7
I811
tp950
a(I7
I813
tp951
a(I7
I814
tp952
a(I7
I819
tp953
a(I7
I820
tp954
a(I7
I822
tp955
a(I7
I823
tp956
a(I7
I826
tp957
a(I7
I827
tp958
a(I7
I829
tp959
a(I7
I831
tp960
a(I7
I835
tp961
a(I7
I845
tp962
a(I7
I852
tp963
a(I7
I853
tp964
a(I7
I859
tp965
a(I7
I860
tp966
a(I7
I863
tp967
a(I7
I865
tp968
a(I7
I867
tp969
a(I7
I869
tp970
a(I7
I871
tp971
a(I7
I874
tp972
a(I7
I876
tp973
a(I7
I882
tp974
a(I7
I887
tp975
a(I7
I888
tp976
a(I7
I889
tp977
a(I7
I890
tp978
a(I7
I891
tp979
a(I7
I894
tp980
a(I7
I896
tp981
a(I7
I897
tp982
a(I7
I898
tp983
a(I7
I899
tp984
a(I7
I900
tp985
a(I7
I901
tp986
a(I7
I903
tp987
a(I7
I904
tp988
a(I7
I905
tp989
a(I7
I906
tp990
a(I7
I907
tp991
a(I7
I908
tp992
a(I7
I909
tp993
a(I7
I910
tp994
a(I7
I912
tp995
a(I7
I913
tp996
a(I7
I914
tp997
a(I7
I916
tp998
a(I7
I918
tp999
a(I7
I919
tp1000
a(I7
I922
tp1001
a(I7
I923
tp1002
a(I7
I924
tp1003
a(I7
I925
tp1004
a(I7
I926
tp1005
a(I7
I928
tp1006
a(I7
I929
tp1007
a(I7
I931
tp1008
a(I7
I932
tp1009
a(I7
I933
tp1010
a(I7
I934
tp1011
a(I7
I935
tp1012
a(I7
I936
tp1013
a(I7
I940
tp1014
a(I7
I941
tp1015
a(I7
I942
tp1016
a(I7
I943
tp1017
a(I7
I944
tp1018
a(I7
I945
tp1019
a(I7
I949
tp1020
a(I7
I952
tp1021
a(I7
I953
tp1022
a(I7
I954
tp1023
a(I7
I955
tp1024
a(I7
I956
tp1025
a(I7
I957
tp1026
a(I8
I2
tp1027
a(I8
I9
tp1028
a(I8
I10
tp1029
a(I8
I16
tp1030
a(I8
I23
tp1031
a(I8
I24
tp1032
a(I8
I26
tp1033
a(I8
I32
tp1034
a(I8
I33
tp1035
a(I8
I58
tp1036
a(I8
I65
tp1037
a(I8
I68
tp1038
a(I8
I70
tp1039
a(I8
I89
tp1040
a(I8
I90
tp1041
a(I8
I102
tp1042
a(I8
I116
tp1043
a(I8
I119
tp1044
a(I8
I120
tp1045
a(I8
I129
tp1046
a(I8
I130
tp1047
a(I8
I149
tp1048
a(I8
I154
tp1049
a(I8
I156
tp1050
a(I8
I168
tp1051
a(I8
I169
tp1052
a(I8
I178
tp1053
a(I8
I193
tp1054
a(I8
I194
tp1055
a(I8
I200
tp1056
a(I8
I202
tp1057
a(I8
I208
tp1058
a(I8
I210
tp1059
a(I8
I223
tp1060
a(I8
I227
tp1061
a(I8
I232
tp1062
a(I8
I234
tp1063
a(I8
I244
tp1064
a(I8
I253
tp1065
a(I8
I264
tp1066
a(I8
I272
tp1067
a(I8
I282
tp1068
a(I8
I283
tp1069
a(I8
I286
tp1070
a(I8
I287
tp1071
a(I8
I288
tp1072
a(I8
I292
tp1073
a(I9
I27
tp1074
a(I9
I91
tp1075
a(I9
I112
tp1076
a(I9
I205
tp1077
a(I9
I298
tp1078
a(I9
I364
tp1079
a(I9
I365
tp1080
a(I9
I389
tp1081
a(I9
I410
tp1082
a(I9
I424
tp1083
a(I9
I450
tp1084
a(I9
I504
tp1085
a(I9
I543
tp1086
a(I9
I548
tp1087
a(I9
I549
tp1088
a(I9
I552
tp1089
a(I9
I595
tp1090
a(I9
I663
tp1091
a(I9
I665
tp1092
a(I9
I695
tp1093
a(I9
I707
tp1094
a(I9
I742
tp1095
a(I9
I779
tp1096
a(I9
I798
tp1097
a(I9
I813
tp1098
a(I9
I819
tp1099
a(I9
I822
tp1100
a(I9
I823
tp1101
a(I9
I824
tp1102
a(I9
I825
tp1103
a(I9
I828
tp1104
a(I9
I830
tp1105
a(I9
I836
tp1106
a(I9
I837
tp1107
a(I9
I838
tp1108
a(I9
I839
tp1109
a(I9
I840
tp1110
a(I9
I841
tp1111
a(I9
I842
tp1112
a(I9
I845
tp1113
a(I9
I846
tp1114
a(I9
I848
tp1115
a(I9
I849
tp1116
a(I9
I851
tp1117
a(I9
I854
tp1118
a(I9
I855
tp1119
a(I10
I156
tp1120
a(I10
I193
tp1121
a(I10
I284
tp1122
a(I10
I292
tp1123
a(I10
I360
tp1124
a(I10
I384
tp1125
a(I10
I404
tp1126
a(I10
I442
tp1127
a(I10
I462
tp1128
a(I10
I516
tp1129
a(I10
I529
tp1130
a(I10
I625
tp1131
a(I10
I641
tp1132
a(I10
I652
tp1133
a(I10
I660
tp1134
a(I10
I673
tp1135
a(I10
I730
tp1136
a(I10
I754
tp1137
a(I10
I786
tp1138
a(I10
I790
tp1139
a(I10
I796
tp1140
a(I10
I813
tp1141
a(I10
I814
tp1142
a(I10
I817
tp1143
a(I10
I821
tp1144
a(I10
I832
tp1145
a(I10
I844
tp1146
a(I10
I845
tp1147
a(I10
I847
tp1148
a(I10
I856
tp1149
a(I10
I858
tp1150
a(I10
I861
tp1151
a(I10
I864
tp1152
a(I10
I870
tp1153
a(I10
I872
tp1154
a(I10
I873
tp1155
a(I10
I874
tp1156
a(I10
I875
tp1157
a(I10
I877
tp1158
a(I10
I879
tp1159
a(I10
I880
tp1160
a(I10
I883
tp1161
a(I10
I884
tp1162
a(I10
I892
tp1163
a(I10
I893
tp1164
a(I10
I894
tp1165
a(I10
I896
tp1166
a(I10
I900
tp1167
a(I10
I902
tp1168
a(I10
I909
tp1169
a(I10
I911
tp1170
a(I10
I912
tp1171
a(I10
I917
tp1172
a(I10
I920
tp1173
a(I10
I921
tp1174
a(I10
I927
tp1175
a(I10
I930
tp1176
a(I10
I931
tp1177
a(I10
I937
tp1178
a(I10
I938
tp1179
a(I10
I939
tp1180
a(I10
I947
tp1181
a(I10
I954
tp1182
a(I10
I956
tp1183
a(I10
I959
tp1184
a(I10
I960
tp1185
a(I10
I961
tp1186
a(I10
I962
tp1187
a(I10
I964
tp1188
a(I10
I965
tp1189
a(I10
I966
tp1190
a(I10
I967
tp1191
a(I10
I969
tp1192
a(I10
I970
tp1193
a(I10
I972
tp1194
a(I10
I974
tp1195
a(I10
I975
tp1196
a(I10
I976
tp1197
a(I10
I978
tp1198
a(I10
I980
tp1199
a(I10
I981
tp1200
a(I10
I984
tp1201
a(I10
I985
tp1202
a(I10
I987
tp1203
a(I10
I988
tp1204
a(I10
I990
tp1205
a(I10
I995
tp1206
a(I10
I996
tp1207
a(I10
I997
tp1208
a(I10
I999
tp1209
a(I10
I1000
tp1210
a(I10
I1001
tp1211
a(I10
I1002
tp1212
a(I10
I1003
tp1213
a(I10
I1004
tp1214
a(I10
I1007
tp1215
a(I10
I1008
tp1216
a(I10
I1009
tp1217
a(I10
I1012
tp1218
a(I10
I1014
tp1219
a(I10
I1015
tp1220
a(I10
I1016
tp1221
a(I10
I1017
tp1222
a(I10
I1018
tp1223
a(I10
I1020
tp1224
a(I10
I1024
tp1225
a(I10
I1025
tp1226
a(I10
I1026
tp1227
a(I10
I1027
tp1228
a(I10
I1030
tp1229
a(I10
I1032
tp1230
a(I10
I1034
tp1231
a(I10
I1035
tp1232
a(I10
I1037
tp1233
a(I10
I1038
tp1234
a(I10
I1039
tp1235
a(I10
I1040
tp1236
a(I10
I1041
tp1237
a(I10
I1043
tp1238
a(I10
I1044
tp1239
a(I10
I1045
tp1240
a(I10
I1049
tp1241
a(I10
I1050
tp1242
a(I10
I1051
tp1243
a(I10
I1053
tp1244
a(I10
I1055
tp1245
a(I10
I1056
tp1246
a(I10
I1057
tp1247
a(I10
I1058
tp1248
a(I10
I1059
tp1249
a(I10
I1060
tp1250
a(I10
I1061
tp1251
a(I10
I1064
tp1252
a(I10
I1068
tp1253
a(I10
I1069
tp1254
a(I10
I1073
tp1255
a(I10
I1080
tp1256
a(I10
I1084
tp1257
a(I10
I1085
tp1258
a(I10
I1086
tp1259
a(I11
I6
tp1260
a(I11
I9
tp1261
a(I11
I25
tp1262
a(I11
I29
tp1263
a(I11
I51
tp1264
a(I11
I58
tp1265
a(I11
I68
tp1266
a(I11
I70
tp1267
a(I11
I78
tp1268
a(I11
I80
tp1269
a(I11
I102
tp1270
a(I11
I154
tp1271
a(I11
I169
tp1272
a(I11
I186
tp1273
a(I11
I193
tp1274
a(I11
I203
tp1275
a(I11
I207
tp1276
a(I11
I208
tp1277
a(I11
I210
tp1278
a(I11
I224
tp1279
a(I11
I234
tp1280
a(I11
I237
tp1281
a(I11
I241
tp1282
a(I11
I244
tp1283
a(I11
I250
tp1284
a(I11
I259
tp1285
a(I11
I265
tp1286
a(I11
I285
tp1287
a(I11
I288
tp1288
a(I11
I304
tp1289
a(I11
I320
tp1290
a(I11
I321
tp1291
a(I11
I328
tp1292
a(I11
I412
tp1293
a(I11
I413
tp1294
a(I11
I430
tp1295
a(I11
I466
tp1296
a(I11
I467
tp1297
a(I11
I470
tp1298
a(I11
I471
tp1299
a(I11
I474
tp1300
a(I11
I475
tp1301
a(I11
I482
tp1302
a(I11
I484
tp1303
a(I11
I485
tp1304
a(I11
I487
tp1305
a(I11
I488
tp1306
a(I11
I491
tp1307
a(I11
I492
tp1308
a(I11
I493
tp1309
a(I11
I495
tp1310
a(I11
I507
tp1311
a(I11
I508
tp1312
a(I11
I509
tp1313
a(I11
I511
tp1314
a(I11
I516
tp1315
a(I11
I521
tp1316
a(I11
I524
tp1317
a(I11
I533
tp1318
a(I11
I534
tp1319
a(I11
I536
tp1320
a(I11
I546
tp1321
a(I11
I553
tp1322
a(I11
I554
tp1323
a(I12
I26
tp1324
a(I12
I79
tp1325
a(I12
I111
tp1326
a(I12
I132
tp1327
a(I12
I136
tp1328
a(I12
I146
tp1329
a(I12
I194
tp1330
a(I12
I275
tp1331
a(I12
I338
tp1332
a(I12
I341
tp1333
a(I12
I363
tp1334
a(I12
I448
tp1335
a(I12
I465
tp1336
a(I12
I473
tp1337
a(I12
I511
tp1338
a(I12
I523
tp1339
a(I12
I560
tp1340
a(I12
I571
tp1341
a(I12
I610
tp1342
a(I12
I618
tp1343
a(I12
I626
tp1344
a(I12
I628
tp1345
a(I12
I645
tp1346
a(I12
I650
tp1347
a(I12
I736
tp1348
a(I12
I761
tp1349
a(I12
I769
tp1350
a(I12
I832
tp1351
a(I12
I870
tp1352
a(I12
I893
tp1353
a(I12
I937
tp1354
a(I12
I978
tp1355
a(I13
I32
tp1356
a(I13
I161
tp1357
a(I13
I292
tp1358
a(I13
I418
tp1359
a(I13
I424
tp1360
a(I13
I490
tp1361
a(I13
I497
tp1362
a(I13
I500
tp1363
a(I13
I511
tp1364
a(I13
I580
tp1365
a(I13
I583
tp1366
a(I13
I623
tp1367
a(I13
I625
tp1368
a(I13
I705
tp1369
a(I13
I713
tp1370
a(I13
I725
tp1371
a(I13
I730
tp1372
a(I13
I734
tp1373
a(I13
I740
tp1374
a(I13
I745
tp1375
a(I13
I747
tp1376
a(I13
I748
tp1377
a(I13
I750
tp1378
a(I13
I752
tp1379
a(I13
I755
tp1380
a(I13
I756
tp1381
a(I13
I760
tp1382
a(I13
I762
tp1383
a(I13
I764
tp1384
a(I13
I767
tp1385
a(I13
I781
tp1386
a(I14
I4
tp1387
a(I14
I7
tp1388
a(I14
I15
tp1389
a(I14
I19
tp1390
a(I14
I23
tp1391
a(I14
I26
tp1392
a(I14
I32
tp1393
a(I14
I51
tp1394
a(I14
I56
tp1395
a(I14
I58
tp1396
a(I14
I68
tp1397
a(I14
I70
tp1398
a(I14
I95
tp1399
a(I14
I116
tp1400
a(I14
I139
tp1401
a(I14
I149
tp1402
a(I14
I150
tp1403
a(I14
I156
tp1404
a(I14
I169
tp1405
a(I14
I177
tp1406
a(I14
I178
tp1407
a(I14
I182
tp1408
a(I14
I188
tp1409
a(I14
I193
tp1410
a(I14
I202
tp1411
a(I14
I207
tp1412
a(I14
I208
tp1413
a(I14
I213
tp1414
a(I14
I224
tp1415
a(I14
I230
tp1416
a(I14
I233
tp1417
a(I14
I243
tp1418
a(I14
I244
tp1419
a(I14
I248
tp1420
a(I14
I256
tp1421
a(I14
I257
tp1422
a(I14
I263
tp1423
a(I14
I264
tp1424
a(I14
I272
tp1425
a(I14
I273
tp1426
a(I14
I278
tp1427
a(I14
I279
tp1428
a(I14
I282
tp1429
a(I14
I286
tp1430
a(I14
I287
tp1431
a(I14
I288
tp1432
a(I14
I292
tp1433
a(I14
I330
tp1434
a(I15
I1
tp1435
a(I15
I29
tp1436
a(I15
I32
tp1437
a(I15
I72
tp1438
a(I15
I82
tp1439
a(I15
I132
tp1440
a(I15
I135
tp1441
a(I15
I155
tp1442
a(I15
I156
tp1443
a(I15
I169
tp1444
a(I15
I192
tp1445
a(I15
I193
tp1446
a(I15
I200
tp1447
a(I15
I264
tp1448
a(I15
I284
tp1449
a(I15
I285
tp1450
a(I15
I291
tp1451
a(I15
I328
tp1452
a(I15
I345
tp1453
a(I15
I347
tp1454
a(I15
I422
tp1455
a(I15
I424
tp1456
a(I15
I426
tp1457
a(I15
I430
tp1458
a(I15
I433
tp1459
a(I15
I440
tp1460
a(I15
I448
tp1461
a(I15
I450
tp1462
a(I15
I463
tp1463
a(I15
I483
tp1464
a(I15
I503
tp1465
a(I15
I530
tp1466
a(I15
I545
tp1467
a(I15
I548
tp1468
a(I15
I549
tp1469
a(I15
I554
tp1470
a(I15
I564
tp1471
a(I15
I565
tp1472
a(I15
I581
tp1473
a(I15
I591
tp1474
a(I15
I597
tp1475
a(I15
I625
tp1476
a(I15
I652
tp1477
a(I15
I660
tp1478
a(I15
I666
tp1479
a(I15
I673
tp1480
a(I15
I691
tp1481
a(I15
I692
tp1482
a(I15
I722
tp1483
a(I15
I724
tp1484
a(I15
I727
tp1485
a(I15
I729
tp1486
a(I15
I730
tp1487
a(I15
I732
tp1488
a(I15
I745
tp1489
a(I15
I759
tp1490
a(I15
I763
tp1491
a(I15
I769
tp1492
a(I15
I772
tp1493
a(I15
I784
tp1494
a(I15
I790
tp1495
a(I15
I794
tp1496
a(I15
I802
tp1497
a(I15
I808
tp1498
a(I15
I813
tp1499
a(I15
I814
tp1500
a(I15
I823
tp1501
a(I15
I831
tp1502
a(I15
I845
tp1503
a(I15
I850
tp1504
a(I15
I852
tp1505
a(I15
I861
tp1506
a(I15
I862
tp1507
a(I15
I868
tp1508
a(I15
I878
tp1509
a(I15
I881
tp1510
a(I15
I888
tp1511
a(I15
I895
tp1512
a(I15
I909
tp1513
a(I15
I929
tp1514
a(I15
I948
tp1515
a(I15
I950
tp1516
a(I15
I951
tp1517
a(I15
I958
tp1518
a(I15
I963
tp1519
a(I15
I967
tp1520
a(I15
I968
tp1521
a(I15
I971
tp1522
a(I15
I977
tp1523
a(I15
I979
tp1524
a(I15
I983
tp1525
a(I15
I984
tp1526
a(I15
I986
tp1527
a(I15
I989
tp1528
a(I15
I992
tp1529
a(I15
I993
tp1530
a(I15
I1002
tp1531
a(I15
I1010
tp1532
a(I15
I1019
tp1533
a(I15
I1021
tp1534
a(I15
I1022
tp1535
a(I15
I1028
tp1536
a(I15
I1031
tp1537
a(I15
I1032
tp1538
a(I15
I1036
tp1539
a(I15
I1042
tp1540
a(I15
I1044
tp1541
a(I15
I1046
tp1542
a(I15
I1047
tp1543
a(I15
I1048
tp1544
a(I15
I1052
tp1545
a(I15
I1054
tp1546
a(I15
I1059
tp1547
a(I15
I1060
tp1548
a(I15
I1062
tp1549
a(I15
I1063
tp1550
a(I15
I1066
tp1551
a(I15
I1067
tp1552
a(I15
I1071
tp1553
a(I15
I1072
tp1554
a(I15
I1074
tp1555
a(I15
I1075
tp1556
a(I15
I1076
tp1557
a(I15
I1077
tp1558
a(I15
I1078
tp1559
a(I15
I1079
tp1560
a(I15
I1082
tp1561
a(I15
I1083
tp1562
a(I15
I1087
tp1563
a(I15
I1088
tp1564
a(I15
I1089
tp1565
a(I15
I1090
tp1566
a(I15
I1091
tp1567
a(I15
I1092
tp1568
a(I15
I1093
tp1569
a.